GAS LISTING C:\Users\Joe\AppData\Local\Temp\ccst7Fd0.s 			page 1


   1               		.file	"CamConfig.c"
   2               	__SP_H__ = 0x3e
   3               	__SP_L__ = 0x3d
   4               	__SREG__ = 0x3f
   5               	__tmp_reg__ = 0
   6               	__zero_reg__ = 1
   7               		.text
   8               	.Ltext0:
   9               		.cfi_sections	.debug_frame
  10               	.global	CamConfig_sendFifoCmds
  11               		.type	CamConfig_sendFifoCmds, @function
  12               	CamConfig_sendFifoCmds:
  13               	.LFB2:
  14               		.file 1 "CamConfig.c"
   1:CamConfig.c   **** /*
   2:CamConfig.c   ****     Copyright (C) 2004    John Orlando
   3:CamConfig.c   ****     
   4:CamConfig.c   ****    AVRcam: a small real-time image processing engine.
   5:CamConfig.c   **** 
   6:CamConfig.c   ****     This program is free software; you can redistribute it and/or
   7:CamConfig.c   ****     modify it under the terms of the GNU General Public
   8:CamConfig.c   ****     License as published by the Free Software Foundation; either
   9:CamConfig.c   ****     version 2 of the License, or (at your option) any later version.
  10:CamConfig.c   **** 
  11:CamConfig.c   ****     This program is distributed in the hope that it will be useful,
  12:CamConfig.c   ****     but WITHOUT ANY WARRANTY; without even the implied warranty of
  13:CamConfig.c   ****     MERCHANTABILITY or FITNESS FOR A PARTICULAR PURPOSE.  See the GNU
  14:CamConfig.c   ****     General Public License for more details.
  15:CamConfig.c   **** 
  16:CamConfig.c   ****     You should have received a copy of the GNU General Public
  17:CamConfig.c   ****     License along with this program; if not, write to the Free Software
  18:CamConfig.c   ****     Foundation, Inc., 59 Temple Place, Suite 330, Boston, MA  02111-1307  USA
  19:CamConfig.c   **** 
  20:CamConfig.c   ****    For more information on the AVRcam, please contact:
  21:CamConfig.c   **** 
  22:CamConfig.c   ****    john@jrobot.net
  23:CamConfig.c   **** 
  24:CamConfig.c   ****    or go to www.jrobot.net for more details regarding the system.
  25:CamConfig.c   **** */
  26:CamConfig.c   **** /**********************************************************
  27:CamConfig.c   **** 	Module Name: CamConfig.c
  28:CamConfig.c   **** 	Module Date: 04/10/2004
  29:CamConfig.c   ****     Module Auth: John Orlando 
  30:CamConfig.c   **** 	
  31:CamConfig.c   **** 	Description: This module is responsible for the 
  32:CamConfig.c   **** 	high-level configuration activities of the OV6620
  33:CamConfig.c   **** 	camera module.  This module interfaces with the
  34:CamConfig.c   **** 	I2CInterface module to perform this configuration.
  35:CamConfig.c   ****     
  36:CamConfig.c   ****     Revision History:
  37:CamConfig.c   ****     Date        Rel Ver.    Notes
  38:CamConfig.c   ****     4/10/2004      0.1     Module created
  39:CamConfig.c   ****     6/30/2004      1.0     Initial release for Circuit Cellar
  40:CamConfig.c   ****                            contest.
  41:CamConfig.c   ****     11/15/2004     1.2     Added code to un-tri-state the
  42:CamConfig.c   ****                            OV6620's pixel data busses at
  43:CamConfig.c   ****                            startup after four seconds.  
GAS LISTING C:\Users\Joe\AppData\Local\Temp\ccst7Fd0.s 			page 2


  44:CamConfig.c   ****                            This was added in to 
  45:CamConfig.c   ****                            allow the user to re-program the
  46:CamConfig.c   ****                            mega8 at startup if needed.
  47:CamConfig.c   **** ***********************************************************/
  48:CamConfig.c   **** 
  49:CamConfig.c   **** /*  Includes */
  50:CamConfig.c   **** #include <avr/io.h>
  51:CamConfig.c   **** #include "CamConfig.h"
  52:CamConfig.c   **** #include "I2CInterface.h"
  53:CamConfig.c   **** #include "CommonDefs.h"
  54:CamConfig.c   **** #include "Utility.h"
  55:CamConfig.c   **** 
  56:CamConfig.c   **** /**********************************************************/
  57:CamConfig.c   **** /*  Definitions */
  58:CamConfig.c   **** /* The length of an I2C command is made up of a register address
  59:CamConfig.c   **** plus the actual value of the register */
  60:CamConfig.c   **** #define SIZE_OF_I2C_CMD 2
  61:CamConfig.c   **** #define MAX_NUM_CONFIG_CMDS 8
  62:CamConfig.c   **** #define CAM_CONFIG_TX_FIFO_SIZE MAX_NUM_CONFIG_CMDS 
  63:CamConfig.c   **** #define CAM_CONFIG_TX_FIFO_MASK CAM_CONFIG_TX_FIFO_SIZE-1
  64:CamConfig.c   **** 
  65:CamConfig.c   **** /*  Local Variables */
  66:CamConfig.c   **** 
  67:CamConfig.c   **** /*  Local Structures and Typedefs */
  68:CamConfig.c   **** 
  69:CamConfig.c   **** /*  Local Function Prototypes */
  70:CamConfig.c   **** static i2cCmd_t CamConfig_readTxFifo(void);
  71:CamConfig.c   **** 
  72:CamConfig.c   **** /*  Extern Variables */
  73:CamConfig.c   **** i2cCmd_t 		CamConfig_txFifo[CAM_CONFIG_TX_FIFO_SIZE];
  74:CamConfig.c   **** unsigned char CamConfig_txFifoHead=0;
  75:CamConfig.c   **** unsigned char CamConfig_txFifoTail=0;
  76:CamConfig.c   **** 
  77:CamConfig.c   **** /***********************************************************
  78:CamConfig.c   **** 	Function Name: CamConfig_init
  79:CamConfig.c   **** 	Function Description: This function is responsible for
  80:CamConfig.c   **** 	performing the initial configuration of the camera.
  81:CamConfig.c   **** 	Inputs:  none
  82:CamConfig.c   **** 	Outputs: none
  83:CamConfig.c   **** ***********************************************************/	
  84:CamConfig.c   **** void CamConfig_init(void)
  85:CamConfig.c   **** {
  86:CamConfig.c   **** 	CamConfig_setCamReg(0x14,0x20);  /* reduce frame size */
  87:CamConfig.c   **** 	CamConfig_setCamReg(0x39,0x40);  /* gate PCLK with HREF */
  88:CamConfig.c   **** 	CamConfig_setCamReg(0x12,0x28);  /* set RGB mode, with no AWB */
  89:CamConfig.c   **** 	CamConfig_setCamReg(0x28,0x05);  /* set color sequencer */
  90:CamConfig.c   ****     CamConfig_setCamReg(0x13,0x01);  /* un-tri-state the Y/UV lines */
  91:CamConfig.c   **** 	
  92:CamConfig.c   **** 	/* send the first four cmds in the I2C fifo */
  93:CamConfig.c   **** 	CamConfig_sendFifoCmds();	
  94:CamConfig.c   **** }
  95:CamConfig.c   **** 
  96:CamConfig.c   **** 
  97:CamConfig.c   **** /***********************************************************
  98:CamConfig.c   **** 	Function Name: CamConfig_setCamReg
  99:CamConfig.c   **** 	Function Description: This function is responsible for
 100:CamConfig.c   **** 	creating an I2C cmd structure and placing it into the
GAS LISTING C:\Users\Joe\AppData\Local\Temp\ccst7Fd0.s 			page 3


 101:CamConfig.c   **** 	cmd fifo.
 102:CamConfig.c   **** 	Inputs:  reg - the register to modify
 103:CamConfig.c   **** 	         val - the new value of the register
 104:CamConfig.c   **** 	Outputs: none
 105:CamConfig.c   **** ***********************************************************/	
 106:CamConfig.c   **** void CamConfig_setCamReg(unsigned char reg, unsigned char val)
 107:CamConfig.c   **** {
 108:CamConfig.c   **** 	i2cCmd_t cmd;
 109:CamConfig.c   **** 	
 110:CamConfig.c   **** 	cmd.configReg = reg;
 111:CamConfig.c   **** 	cmd.data = val;
 112:CamConfig.c   **** #ifndef SIMULATION	
 113:CamConfig.c   **** 	CamConfig_writeTxFifo(cmd);
 114:CamConfig.c   **** #endif	
 115:CamConfig.c   **** }
 116:CamConfig.c   **** /***********************************************************
 117:CamConfig.c   **** 	Function Name: CamConfig_sendFifoCmds
 118:CamConfig.c   **** 	Function Description: This function is responsible for
 119:CamConfig.c   **** 	sending the entire contents of the config fifo.  This
 120:CamConfig.c   **** 	function won't return until the configuration process
 121:CamConfig.c   **** 	is complete (or an error is encountered).
 122:CamConfig.c   **** 	Inputs:  none
 123:CamConfig.c   **** 	Outputs: none
 124:CamConfig.c   **** 	Note: Since this function is written to use the TWI
 125:CamConfig.c   **** 	interrupt in the I2CInterface module, there will be 
 126:CamConfig.c   **** 	some busy-waiting here...no big deal, since we end up
 127:CamConfig.c   **** 	having to trash the frame that we are executing this
 128:CamConfig.c   **** 	slave write in anyway (since we can't meet the strict
 129:CamConfig.c   **** 	timing requirements and write i2c at the same time).
 130:CamConfig.c   **** ***********************************************************/	
 131:CamConfig.c   **** void CamConfig_sendFifoCmds(void)
 132:CamConfig.c   **** {
  15               		.loc 1 132 0
  16               		.cfi_startproc
  17 0000 CF93      		push r28
  18               	.LCFI0:
  19               		.cfi_def_cfa_offset 3
  20               		.cfi_offset 28, -2
  21 0002 DF93      		push r29
  22               	.LCFI1:
  23               		.cfi_def_cfa_offset 4
  24               		.cfi_offset 29, -3
  25 0004 00D0      		rcall .
  26               	.LCFI2:
  27               		.cfi_def_cfa_offset 6
  28 0006 CDB7      		in r28,__SP_L__
  29 0008 DEB7      		in r29,__SP_H__
  30               	.LCFI3:
  31               		.cfi_def_cfa_register 28
  32               	/* prologue: function */
  33               	/* frame size = 2 */
  34               	/* stack size = 4 */
  35               	.L__stack_usage = 4
 133:CamConfig.c   **** 	i2cCmd_t cmd;
 134:CamConfig.c   **** 	
 135:CamConfig.c   **** 	while (CamConfig_txFifoHead != CamConfig_txFifoTail)
  36               		.loc 1 135 0
GAS LISTING C:\Users\Joe\AppData\Local\Temp\ccst7Fd0.s 			page 4


  37 000a 00C0      		rjmp .L2
  38               	.L4:
  39               	.LBB4:
  40               	.LBB5:
 136:CamConfig.c   **** 	{
 137:CamConfig.c   **** 		cmd = CamConfig_readTxFifo();
 138:CamConfig.c   **** 		I2CInt_writeData(CAM_ADDRESS,&cmd.configReg,SIZE_OF_I2C_CMD);
 139:CamConfig.c   **** 		Utility_delay(100);		
 140:CamConfig.c   **** 		/* wait for the I2C transaction to complete */
 141:CamConfig.c   **** 		while(I2CInt_isI2cBusy() == TRUE);
 142:CamConfig.c   **** 	} 
 143:CamConfig.c   **** }
 144:CamConfig.c   **** 
 145:CamConfig.c   **** /***********************************************************
 146:CamConfig.c   **** 	Function Name: CamConfig_writeTxFifo
 147:CamConfig.c   **** 	Function Description: This function is responsible for
 148:CamConfig.c   **** 	adding a new command to the tx fifo.  It adjusts all
 149:CamConfig.c   **** 	needed pointers.
 150:CamConfig.c   **** 	Inputs:  cmd - the i2cCmd_t to add to the fifo
 151:CamConfig.c   **** 	Outputs: bool_t - indicating if writing to the fifo
 152:CamConfig.c   **** 	         causes it to wrap
 153:CamConfig.c   **** ***********************************************************/	
 154:CamConfig.c   **** bool_t CamConfig_writeTxFifo(i2cCmd_t cmd)
 155:CamConfig.c   **** {
 156:CamConfig.c   **** 	unsigned char tmpHead;
 157:CamConfig.c   **** 	bool_t retVal = TRUE;
 158:CamConfig.c   ****  	
 159:CamConfig.c   **** 	CamConfig_txFifo[CamConfig_txFifoHead] = cmd;
 160:CamConfig.c   **** 		
 161:CamConfig.c   **** 	/* see if we need to wrap */
 162:CamConfig.c   **** 	tmpHead = (CamConfig_txFifoHead+1) & (CAM_CONFIG_TX_FIFO_MASK);
 163:CamConfig.c   **** 	CamConfig_txFifoHead = tmpHead;
 164:CamConfig.c   **** 	
 165:CamConfig.c   **** 	/* check to see if we have filled up the queue */
 166:CamConfig.c   **** 	if (CamConfig_txFifoHead == CamConfig_txFifoTail)
 167:CamConfig.c   **** 	{
 168:CamConfig.c   **** 		/* we wrapped the fifo...return false */
 169:CamConfig.c   **** 		retVal = FALSE;
 170:CamConfig.c   **** 	}
 171:CamConfig.c   **** 	return(retVal);
 172:CamConfig.c   **** }
 173:CamConfig.c   **** 
 174:CamConfig.c   **** /***********************************************************
 175:CamConfig.c   **** 	Function Name: CamConfig_readTxFifo
 176:CamConfig.c   **** 	Function Description: This function is responsible for
 177:CamConfig.c   **** 	reading a cmd out of the tx fifo.
 178:CamConfig.c   **** 	Inputs:  none
 179:CamConfig.c   **** 	Outputs: i2cCmd_t - the cmd read from the fifo
 180:CamConfig.c   **** ***********************************************************/	
 181:CamConfig.c   **** static i2cCmd_t CamConfig_readTxFifo(void)
 182:CamConfig.c   **** {
 183:CamConfig.c   **** 	i2cCmd_t cmd;
 184:CamConfig.c   **** 	unsigned char tmpTail;
 185:CamConfig.c   **** 	
 186:CamConfig.c   **** 	/* just return the current tail from the rx fifo */
 187:CamConfig.c   **** 	cmd = CamConfig_txFifo[CamConfig_txFifoTail];	
  41               		.loc 1 187 0
GAS LISTING C:\Users\Joe\AppData\Local\Temp\ccst7Fd0.s 			page 5


  42 000c E82F      		mov r30,r24
  43 000e F0E0      		ldi r31,0
  44 0010 EE0F      		lsl r30
  45 0012 FF1F      		rol r31
  46 0014 E050      		subi r30,lo8(-(CamConfig_txFifo))
  47 0016 F040      		sbci r31,hi8(-(CamConfig_txFifo))
  48 0018 2081      		ld r18,Z
  49               	.LVL0:
  50 001a 9181      		ldd r25,Z+1
  51               	.LVL1:
 188:CamConfig.c   **** 	tmpTail = (CamConfig_txFifoTail+1) & (CAM_CONFIG_TX_FIFO_MASK);
 189:CamConfig.c   **** 	CamConfig_txFifoTail = tmpTail;
  52               		.loc 1 189 0
  53 001c 8F5F      		subi r24,lo8(-(1))
  54               	.LVL2:
  55 001e 8770      		andi r24,lo8(7)
  56               	.LVL3:
  57 0020 8093 0000 		sts CamConfig_txFifoTail,r24
  58               	.LVL4:
  59               	.LBE5:
  60               	.LBE4:
 137:CamConfig.c   **** 		I2CInt_writeData(CAM_ADDRESS,&cmd.configReg,SIZE_OF_I2C_CMD);
  61               		.loc 1 137 0
  62 0024 2983      		std Y+1,r18
  63 0026 9A83      		std Y+2,r25
 138:CamConfig.c   **** 		Utility_delay(100);		
  64               		.loc 1 138 0
  65 0028 42E0      		ldi r20,lo8(2)
  66 002a BE01      		movw r22,r28
  67 002c 6F5F      		subi r22,-1
  68 002e 7F4F      		sbci r23,-1
  69 0030 80E6      		ldi r24,lo8(96)
  70 0032 00D0      		rcall I2CInt_writeData
  71               	.LVL5:
 139:CamConfig.c   **** 		/* wait for the I2C transaction to complete */
  72               		.loc 1 139 0
  73 0034 84E6      		ldi r24,lo8(100)
  74 0036 90E0      		ldi r25,0
  75 0038 00D0      		rcall Utility_delay
  76               	.LVL6:
  77               	.L3:
 141:CamConfig.c   **** 	} 
  78               		.loc 1 141 0 discriminator 1
  79 003a 00D0      		rcall I2CInt_isI2cBusy
  80               	.LVL7:
  81 003c 8130      		cpi r24,lo8(1)
  82 003e 01F0      		breq .L3
  83               	.L2:
 135:CamConfig.c   **** 	{
  84               		.loc 1 135 0
  85 0040 8091 0000 		lds r24,CamConfig_txFifoTail
  86 0044 9091 0000 		lds r25,CamConfig_txFifoHead
  87 0048 9813      		cpse r25,r24
  88 004a 00C0      		rjmp .L4
  89               	/* epilogue start */
 143:CamConfig.c   **** 
  90               		.loc 1 143 0
GAS LISTING C:\Users\Joe\AppData\Local\Temp\ccst7Fd0.s 			page 6


  91 004c 0F90      		pop __tmp_reg__
  92 004e 0F90      		pop __tmp_reg__
  93 0050 DF91      		pop r29
  94 0052 CF91      		pop r28
  95 0054 0895      		ret
  96               		.cfi_endproc
  97               	.LFE2:
  98               		.size	CamConfig_sendFifoCmds, .-CamConfig_sendFifoCmds
  99               	.global	CamConfig_writeTxFifo
 100               		.type	CamConfig_writeTxFifo, @function
 101               	CamConfig_writeTxFifo:
 102               	.LFB3:
 155:CamConfig.c   **** 	unsigned char tmpHead;
 103               		.loc 1 155 0
 104               		.cfi_startproc
 105               	.LVL8:
 106               	/* prologue: function */
 107               	/* frame size = 0 */
 108               	/* stack size = 0 */
 109               	.L__stack_usage = 0
 159:CamConfig.c   **** 		
 110               		.loc 1 159 0
 111 0056 2091 0000 		lds r18,CamConfig_txFifoHead
 112 005a E22F      		mov r30,r18
 113 005c F0E0      		ldi r31,0
 114 005e EE0F      		lsl r30
 115 0060 FF1F      		rol r31
 116 0062 E050      		subi r30,lo8(-(CamConfig_txFifo))
 117 0064 F040      		sbci r31,hi8(-(CamConfig_txFifo))
 118 0066 9183      		std Z+1,r25
 119 0068 8083      		st Z,r24
 162:CamConfig.c   **** 	CamConfig_txFifoHead = tmpHead;
 120               		.loc 1 162 0
 121 006a 2F5F      		subi r18,lo8(-(1))
 122 006c 2770      		andi r18,lo8(7)
 123               	.LVL9:
 163:CamConfig.c   **** 	
 124               		.loc 1 163 0
 125 006e 2093 0000 		sts CamConfig_txFifoHead,r18
 126               	.LVL10:
 171:CamConfig.c   **** }
 127               		.loc 1 171 0
 128 0072 81E0      		ldi r24,lo8(1)
 129               	.LVL11:
 130 0074 9091 0000 		lds r25,CamConfig_txFifoTail
 131 0078 9213      		cpse r25,r18
 132 007a 00C0      		rjmp .L7
 133 007c 80E0      		ldi r24,0
 134               	.L7:
 172:CamConfig.c   **** 
 135               		.loc 1 172 0
 136 007e 0895      		ret
 137               		.cfi_endproc
 138               	.LFE3:
 139               		.size	CamConfig_writeTxFifo, .-CamConfig_writeTxFifo
 140               	.global	CamConfig_setCamReg
 141               		.type	CamConfig_setCamReg, @function
GAS LISTING C:\Users\Joe\AppData\Local\Temp\ccst7Fd0.s 			page 7


 142               	CamConfig_setCamReg:
 143               	.LFB1:
 107:CamConfig.c   **** 	i2cCmd_t cmd;
 144               		.loc 1 107 0
 145               		.cfi_startproc
 146               	.LVL12:
 147               	/* prologue: function */
 148               	/* frame size = 0 */
 149               	/* stack size = 0 */
 150               	.L__stack_usage = 0
 151 0080 962F      		mov r25,r22
 113:CamConfig.c   **** #endif	
 152               		.loc 1 113 0
 153 0082 00D0      		rcall CamConfig_writeTxFifo
 154               	.LVL13:
 155 0084 0895      		ret
 156               		.cfi_endproc
 157               	.LFE1:
 158               		.size	CamConfig_setCamReg, .-CamConfig_setCamReg
 159               	.global	CamConfig_init
 160               		.type	CamConfig_init, @function
 161               	CamConfig_init:
 162               	.LFB0:
  85:CamConfig.c   **** 	CamConfig_setCamReg(0x14,0x20);  /* reduce frame size */
 163               		.loc 1 85 0
 164               		.cfi_startproc
 165               	/* prologue: function */
 166               	/* frame size = 0 */
 167               	/* stack size = 0 */
 168               	.L__stack_usage = 0
  86:CamConfig.c   **** 	CamConfig_setCamReg(0x39,0x40);  /* gate PCLK with HREF */
 169               		.loc 1 86 0
 170 0086 60E2      		ldi r22,lo8(32)
 171 0088 84E1      		ldi r24,lo8(20)
 172 008a 00D0      		rcall CamConfig_setCamReg
 173               	.LVL14:
  87:CamConfig.c   **** 	CamConfig_setCamReg(0x12,0x28);  /* set RGB mode, with no AWB */
 174               		.loc 1 87 0
 175 008c 60E4      		ldi r22,lo8(64)
 176 008e 89E3      		ldi r24,lo8(57)
 177 0090 00D0      		rcall CamConfig_setCamReg
 178               	.LVL15:
  88:CamConfig.c   **** 	CamConfig_setCamReg(0x28,0x05);  /* set color sequencer */
 179               		.loc 1 88 0
 180 0092 68E2      		ldi r22,lo8(40)
 181 0094 82E1      		ldi r24,lo8(18)
 182 0096 00D0      		rcall CamConfig_setCamReg
 183               	.LVL16:
  89:CamConfig.c   ****     CamConfig_setCamReg(0x13,0x01);  /* un-tri-state the Y/UV lines */
 184               		.loc 1 89 0
 185 0098 65E0      		ldi r22,lo8(5)
 186 009a 88E2      		ldi r24,lo8(40)
 187 009c 00D0      		rcall CamConfig_setCamReg
 188               	.LVL17:
  90:CamConfig.c   **** 	
 189               		.loc 1 90 0
 190 009e 61E0      		ldi r22,lo8(1)
GAS LISTING C:\Users\Joe\AppData\Local\Temp\ccst7Fd0.s 			page 8


 191 00a0 83E1      		ldi r24,lo8(19)
 192 00a2 00D0      		rcall CamConfig_setCamReg
 193               	.LVL18:
  93:CamConfig.c   **** }
 194               		.loc 1 93 0
 195 00a4 00D0      		rcall CamConfig_sendFifoCmds
 196               	.LVL19:
 197 00a6 0895      		ret
 198               		.cfi_endproc
 199               	.LFE0:
 200               		.size	CamConfig_init, .-CamConfig_init
 201               	.global	CamConfig_txFifoTail
 202               		.section .bss
 203               		.type	CamConfig_txFifoTail, @object
 204               		.size	CamConfig_txFifoTail, 1
 205               	CamConfig_txFifoTail:
 206 0000 00        		.zero	1
 207               	.global	CamConfig_txFifoHead
 208               		.type	CamConfig_txFifoHead, @object
 209               		.size	CamConfig_txFifoHead, 1
 210               	CamConfig_txFifoHead:
 211 0001 00        		.zero	1
 212               		.comm	CamConfig_txFifo,16,1
 213               		.text
 214               	.Letext0:
 215               		.file 2 "I2CInterface.h"
 216               		.file 3 "CommonDefs.h"
 217               		.file 4 "Utility.h"