GAS LISTING C:\Users\Joe\AppData\Local\Temp\ccGFCZfB.s 			page 1


   1               		.file	"FrameMgr.c"
   2               	__SP_H__ = 0x3e
   3               	__SP_L__ = 0x3d
   4               	__SREG__ = 0x3f
   5               	__tmp_reg__ = 0
   6               	__zero_reg__ = 1
   7               		.text
   8               	.Ltext0:
   9               		.cfi_sections	.debug_frame
  10               	.global	FrameMgr_init
  11               		.type	FrameMgr_init, @function
  12               	FrameMgr_init:
  13               	.LFB4:
  14               		.file 1 "FrameMgr.c"
   1:FrameMgr.c    **** /*
   2:FrameMgr.c    ****     Copyright (C) 2004    John Orlando
   3:FrameMgr.c    ****     
   4:FrameMgr.c    ****    AVRcam: a small real-time image processing engine.
   5:FrameMgr.c    **** 
   6:FrameMgr.c    ****     This program is free software; you can redistribute it and/or
   7:FrameMgr.c    ****     modify it under the terms of the GNU General Public
   8:FrameMgr.c    ****     License as published by the Free Software Foundation; either
   9:FrameMgr.c    ****     version 2 of the License, or (at your option) any later version.
  10:FrameMgr.c    **** 
  11:FrameMgr.c    ****     This program is distributed in the hope that it will be useful,
  12:FrameMgr.c    ****     but WITHOUT ANY WARRANTY; without even the implied warranty of
  13:FrameMgr.c    ****     MERCHANTABILITY or FITNESS FOR A PARTICULAR PURPOSE.  See the GNU
  14:FrameMgr.c    ****     General Public License for more details.
  15:FrameMgr.c    **** 
  16:FrameMgr.c    ****     You should have received a copy of the GNU General Public
  17:FrameMgr.c    ****     License along with this program; if not, write to the Free Software
  18:FrameMgr.c    ****     Foundation, Inc., 59 Temple Place, Suite 330, Boston, MA  02111-1307  USA
  19:FrameMgr.c    **** 
  20:FrameMgr.c    ****    For more information on the AVRcam, please contact:
  21:FrameMgr.c    **** 
  22:FrameMgr.c    ****    john@jrobot.net
  23:FrameMgr.c    **** 
  24:FrameMgr.c    ****    or go to www.jrobot.net for more details regarding the system.
  25:FrameMgr.c    **** */
  26:FrameMgr.c    **** /*********************************************************
  27:FrameMgr.c    **** 	Module Name: FrameMgr.c
  28:FrameMgr.c    **** 	Module Date: 04/10/2004
  29:FrameMgr.c    **** 	Module Auth: John Orlando
  30:FrameMgr.c    **** 	
  31:FrameMgr.c    **** 	Description: This modules is responsible for performing
  32:FrameMgr.c    **** 	both medium and high level processing on image data.
  33:FrameMgr.c    **** 	This is performed at both the line level as well as
  34:FrameMgr.c    **** 	the frame level.  It controls the main flow of the
  35:FrameMgr.c    **** 	system, adhering to all the critical timing 
  36:FrameMgr.c    **** 	requirements (such as when serial data can be transferred,
  37:FrameMgr.c    **** 	etc).
  38:FrameMgr.c    ****     
  39:FrameMgr.c    ****     Revision History:
  40:FrameMgr.c    ****     Date        Rel Ver.    Notes
  41:FrameMgr.c    ****     4/10/2004      0.1     Module created
  42:FrameMgr.c    ****     6/30/2004      1.0     Initial release for Circuit Cellar
  43:FrameMgr.c    ****                            contest.
GAS LISTING C:\Users\Joe\AppData\Local\Temp\ccGFCZfB.s 			page 2


  44:FrameMgr.c    ****     11/15/2004     1.2     Updated processLine() function so 
  45:FrameMgr.c    ****                            it will remove objects less than
  46:FrameMgr.c    ****                            a specified length/width (reduces
  47:FrameMgr.c    ****                            shot noise)
  48:FrameMgr.c    **** *********************************************************/
  49:FrameMgr.c    **** 
  50:FrameMgr.c    **** /*	Includes */
  51:FrameMgr.c    **** #include <stdlib.h>
  52:FrameMgr.c    **** #include <string.h>
  53:FrameMgr.c    **** #include <avr/io.h>
  54:FrameMgr.c    **** #include "Executive.h"
  55:FrameMgr.c    **** #include "UIMgr.h"
  56:FrameMgr.c    **** #include "FrameMgr.h"
  57:FrameMgr.c    **** #include "CamInterface.h"
  58:FrameMgr.c    **** #include "UartInterface.h"
  59:FrameMgr.c    **** #include "Utility.h"
  60:FrameMgr.c    **** #include "I2CInterface.h"
  61:FrameMgr.c    **** #include "CamConfig.h"
  62:FrameMgr.c    **** #include "CommonDefs.h"
  63:FrameMgr.c    **** 
  64:FrameMgr.c    **** /* 	Local Structures and Typedefs */
  65:FrameMgr.c    **** enum
  66:FrameMgr.c    **** {
  67:FrameMgr.c    **** 	ST_FrameMgr_idle,
  68:FrameMgr.c    **** 	ST_FrameMgr_TrackingFrame,
  69:FrameMgr.c    **** 	ST_FrameMgr_DumpingFrame
  70:FrameMgr.c    **** };
  71:FrameMgr.c    **** 
  72:FrameMgr.c    **** typedef unsigned char FrameMgr_State_t;
  73:FrameMgr.c    **** 
  74:FrameMgr.c    **** /*  Definitions */
  75:FrameMgr.c    **** /* The most objects that can be tracked at any one time is 8.  
  76:FrameMgr.c    **** This number is determined by the number of bytes that can be
  77:FrameMgr.c    **** sent out during a frame (one byte per line, 144 lines per frame) 
  78:FrameMgr.c    **** with the number of bytes in a tracked object (7) + some wiggle
  79:FrameMgr.c    **** room :-) ... I guess this could be increased to around 20 if
  80:FrameMgr.c    **** we had enough room and cycles to process objects between lines */
  81:FrameMgr.c    **** #define MAX_TRACKED_OBJECTS	8
  82:FrameMgr.c    **** 
  83:FrameMgr.c    **** /* This defines the number of bytes that make up a trackedObject_t
  84:FrameMgr.c    **** structure... */
  85:FrameMgr.c    **** #define SIZE_OF_TRACKED_OBJECT 8
  86:FrameMgr.c    **** 
  87:FrameMgr.c    **** /* This define is used to turn off the timer overflow interrupt
  88:FrameMgr.c    **** that is generated when the PCLK overflows TIMER1 */
  89:FrameMgr.c    **** #define DISABLE_PCLK_TIMER1_OVERFLOW_BITMASK 0xFB
  90:FrameMgr.c    **** 
  91:FrameMgr.c    **** /* This define is used to determine if a run length is too small
  92:FrameMgr.c    **** to be concerned with.  This helps to reduce the number of false
  93:FrameMgr.c    **** positives. */
  94:FrameMgr.c    **** #define MIN_OBJECT_TRACKING_WIDTH 3
  95:FrameMgr.c    **** 
  96:FrameMgr.c    **** /* This define is used to determine if an object has enough
  97:FrameMgr.c    **** height to be considered worth tracking...it is used to reduce
  98:FrameMgr.c    **** shot noise */
  99:FrameMgr.c    **** #define MIN_OBJECT_TRACKING_HEIGHT 3
 100:FrameMgr.c    **** 
GAS LISTING C:\Users\Joe\AppData\Local\Temp\ccGFCZfB.s 			page 3


 101:FrameMgr.c    **** /* This define is used to indicate how often the filter routine
 102:FrameMgr.c    **** that removes objects less than MIN_OBJECT_TRACKING_HEIGHT should
 103:FrameMgr.c    **** be executed.  It is measured in a number of lines (7 nominally). */
 104:FrameMgr.c    **** #define RUN_OBJECT_FILTER_MASK 0x07
 105:FrameMgr.c    **** 
 106:FrameMgr.c    **** /* This enum describes the possible colors that can
 107:FrameMgr.c    **** be tracked by the system.  This can't be represented as
 108:FrameMgr.c    **** simple color names (red, brown, etc) due to the fact that
 109:FrameMgr.c    **** the user sets which colors will be associated with which
 110:FrameMgr.c    **** bits.  Remember...after the AND operation of the indexed
 111:FrameMgr.c    **** color map values executes, either a single bit indicating
 112:FrameMgr.c    **** the color should be set, or no bits indicating that the
 113:FrameMgr.c    **** color isn't represented in the color map (notTracked). */
 114:FrameMgr.c    **** enum
 115:FrameMgr.c    **** {
 116:FrameMgr.c    **** 	notTracked,
 117:FrameMgr.c    **** 	color1,		/* bit 1 color */
 118:FrameMgr.c    **** 	color2,		/* bit 2 color */
 119:FrameMgr.c    **** 	color3,		/* bit 3 color */
 120:FrameMgr.c    **** 	color4,		/* bit 4 color */
 121:FrameMgr.c    **** 	color5,		/* bit 5 color */
 122:FrameMgr.c    **** 	color6,		/* bit 6 color */
 123:FrameMgr.c    **** 	color7,		/* bit 7 color */
 124:FrameMgr.c    **** 	color8		/* bit 8 color */
 125:FrameMgr.c    **** };
 126:FrameMgr.c    **** 
 127:FrameMgr.c    **** typedef unsigned char trackedColor_t;
 128:FrameMgr.c    **** 
 129:FrameMgr.c    **** /* This structure defines the info that needs to be
 130:FrameMgr.c    **** maintained for each trackedObject in the trackingTable */
 131:FrameMgr.c    **** typedef struct
 132:FrameMgr.c    **** {
 133:FrameMgr.c    **** 	trackedColor_t  color;
 134:FrameMgr.c    **** 	unsigned char lastLineXStart;
 135:FrameMgr.c    **** 	unsigned char lastLineXFinish;
 136:FrameMgr.c    **** 	unsigned char x_upperLeft;
 137:FrameMgr.c    **** 	unsigned char y_upperLeft;
 138:FrameMgr.c    **** 	unsigned char x_lowerRight;
 139:FrameMgr.c    **** 	unsigned char y_lowerRight;
 140:FrameMgr.c    **** 	unsigned char objectValid;  /* used to be a fill byte...now it is
 141:FrameMgr.c    ****                                      used to determine if the object is valid
 142:FrameMgr.c    ****                                      or not...it gets invalidated if it is
 143:FrameMgr.c    ****                                      determined that it is too small, or
 144:FrameMgr.c    ****                                      that the object is within another object */
 145:FrameMgr.c    **** } trackedObject_t;
 146:FrameMgr.c    **** 
 147:FrameMgr.c    **** /* These defines are used to index into each individual element in the
 148:FrameMgr.c    **** trackedObject_t structure.  This seems to be MUCH more efficient than
 149:FrameMgr.c    **** accessing the elements in GCC. */
 150:FrameMgr.c    **** #define COLOR_OFFSET                0
 151:FrameMgr.c    **** #define LAST_LINE_X_START_OFFSET    1
 152:FrameMgr.c    **** #define LAST_LINE_X_FINISH_OFFSET   2
 153:FrameMgr.c    **** #define X_UPPER_LEFT_OFFSET         3
 154:FrameMgr.c    **** #define Y_UPPER_LEFT_OFFSET         4
 155:FrameMgr.c    **** #define X_LOWER_RIGHT_OFFSET        5
 156:FrameMgr.c    **** #define Y_LOWER_RIGHT_OFFSET        6
 157:FrameMgr.c    **** #define VALID_OBJECT_OFFSET         7
GAS LISTING C:\Users\Joe\AppData\Local\Temp\ccGFCZfB.s 			page 4


 158:FrameMgr.c    **** 
 159:FrameMgr.c    **** /*  Local Variables */
 160:FrameMgr.c    **** /* The trackedObjectTable is used to hold up to eight tracked objects
 161:FrameMgr.c    **** while they are being acquired. */
 162:FrameMgr.c    **** static trackedObject_t trackedObjectTable[MAX_TRACKED_OBJECTS];
 163:FrameMgr.c    **** static trackedObject_t *pCurrentTrackedObjectTable = trackedObjectTable;
 164:FrameMgr.c    **** static unsigned char lineCount = 0;
 165:FrameMgr.c    **** static FrameMgr_State_t currentState = ST_FrameMgr_idle;
 166:FrameMgr.c    **** static unsigned char numCurrTrackedObjects = 0;
 167:FrameMgr.c    **** static unsigned char numPrevTrackedObjects = 0;
 168:FrameMgr.c    **** static unsigned char trackedLineCount = 0;
 169:FrameMgr.c    **** 
 170:FrameMgr.c    **** /*  Local Functions  */
 171:FrameMgr.c    **** static void FrameMgr_findConnectedness(void);
 172:FrameMgr.c    **** 
 173:FrameMgr.c    **** /*  Extern Functions */
 174:FrameMgr.c    **** /* These functions are located in assembly files, and thus
 175:FrameMgr.c    **** must be externed here so they can be referenced in the source below. */
 176:FrameMgr.c    **** extern void CamIntAsm_waitForNewTrackingFrame(unsigned char *pBuffer, unsigned char *pMemLookup);
 177:FrameMgr.c    **** extern void CamIntAsm_waitForNewDumpFrame(unsigned char *pCurrBuffer, unsigned char *pPrevBuffer);
 178:FrameMgr.c    **** extern void CamIntAsm_acquireTrackingLine(unsigned char *pBuffer, unsigned char *pMemLookup);
 179:FrameMgr.c    **** extern void CamIntAsm_acquireDumpLine(unsigned char *pCurrBuffer, unsigned char *pPrevBuffer);
 180:FrameMgr.c    **** 
 181:FrameMgr.c    **** /***********************************************************
 182:FrameMgr.c    **** 	Function Name: FrameMgr_init
 183:FrameMgr.c    **** 	Function Description: This function is responsible
 184:FrameMgr.c    **** 	for initializing the FrameMgr.  This includes 
 185:FrameMgr.c    **** 	setting up the various buffers and data needed to 
 186:FrameMgr.c    **** 	process each frame of image data.
 187:FrameMgr.c    **** 	Inputs:  none
 188:FrameMgr.c    **** 	Outputs: none
 189:FrameMgr.c    **** ***********************************************************/	
 190:FrameMgr.c    **** void FrameMgr_init(void)
 191:FrameMgr.c    **** {
  15               		.loc 1 191 0
  16               		.cfi_startproc
  17               	/* prologue: function */
  18               	/* frame size = 0 */
  19               	/* stack size = 0 */
  20               	.L__stack_usage = 0
 192:FrameMgr.c    **** 	memset(trackedObjectTable,0x00,sizeof(trackedObjectTable));
  21               		.loc 1 192 0
  22 0000 80E4      		ldi r24,lo8(64)
  23 0002 E0E0      		ldi r30,lo8(trackedObjectTable)
  24 0004 F0E0      		ldi r31,hi8(trackedObjectTable)
  25 0006 DF01      		movw r26,r30
  26               		0:
  27 0008 1D92      		st X+,__zero_reg__
  28 000a 8A95      		dec r24
  29 000c 01F4      		brne 0b
  30 000e 0895      		ret
  31               		.cfi_endproc
  32               	.LFE4:
  33               		.size	FrameMgr_init, .-FrameMgr_init
  34               	.global	FrameMgr_acquireFrame
  35               		.type	FrameMgr_acquireFrame, @function
  36               	FrameMgr_acquireFrame:
GAS LISTING C:\Users\Joe\AppData\Local\Temp\ccGFCZfB.s 			page 5


  37               	.LFB6:
 193:FrameMgr.c    **** }
 194:FrameMgr.c    **** 
 195:FrameMgr.c    **** 
 196:FrameMgr.c    **** /***********************************************************
 197:FrameMgr.c    **** 	Function Name: FrameMgr_dispatchEvent
 198:FrameMgr.c    **** 	Function Description: This function is responsible for
 199:FrameMgr.c    **** 	taking an incoming event and performing the needed
 200:FrameMgr.c    **** 	actions with it as pertains to the FrameMgr.
 201:FrameMgr.c    **** 	Inputs:  event - the generated event
 202:FrameMgr.c    **** 	Outputs: none
 203:FrameMgr.c    **** ***********************************************************/	
 204:FrameMgr.c    **** void FrameMgr_dispatchEvent(unsigned char event)
 205:FrameMgr.c    **** {	
 206:FrameMgr.c    **** 	switch(event)
 207:FrameMgr.c    **** 	{
 208:FrameMgr.c    **** 		case EV_DUMP_FRAME:
 209:FrameMgr.c    ****             /* try re-initializing the camera before we start dumping */
 210:FrameMgr.c    ****             
 211:FrameMgr.c    **** 			CamConfig_setCamReg(0x11,0x01);  /* reduce the frame rate for dumping*/
 212:FrameMgr.c    **** 			CamConfig_sendFifoCmds();
 213:FrameMgr.c    **** 			Utility_delay(1000);		/* allow the new frame rate to settle */
 214:FrameMgr.c    **** 			lineCount = 0;
 215:FrameMgr.c    **** 			currentState = ST_FrameMgr_DumpingFrame;
 216:FrameMgr.c    **** 			//CamIntAsm_waitForNewDumpFrame(currentLineBuffer,previousLineBuffer);
 217:FrameMgr.c    ****             FrameMgr_acquireLine();
 218:FrameMgr.c    **** 			break;
 219:FrameMgr.c    **** 		
 220:FrameMgr.c    **** 		case EV_ENABLE_TRACKING:
 221:FrameMgr.c    **** 			currentState = ST_FrameMgr_TrackingFrame;					
 222:FrameMgr.c    **** 			FrameMgr_acquireFrame();
 223:FrameMgr.c    **** 			break;
 224:FrameMgr.c    **** 			
 225:FrameMgr.c    **** 		case EV_ACQUIRE_FRAME_COMPLETE:
 226:FrameMgr.c    **** 			FrameMgr_processFrame();
 227:FrameMgr.c    **** 			break;
 228:FrameMgr.c    **** 		
 229:FrameMgr.c    **** 		case EV_PROCESS_FRAME_COMPLETE:
 230:FrameMgr.c    **** 			FrameMgr_acquireFrame();
 231:FrameMgr.c    **** 			break;
 232:FrameMgr.c    **** 
 233:FrameMgr.c    **** 		case EV_SERIAL_DATA_RECEIVED:
 234:FrameMgr.c    **** 			if (currentState != ST_FrameMgr_idle)
 235:FrameMgr.c    **** 			{
 236:FrameMgr.c    **** 				/* we need to go back to processing line data, since
 237:FrameMgr.c    **** 				serial data reception interrupted us....just trash the
 238:FrameMgr.c    **** 				frame and act like the frame has been processed, which
 239:FrameMgr.c    **** 				will kick off the system to wait for the next line */
 240:FrameMgr.c    **** 				PUBLISH_EVENT(EV_PROCESS_FRAME_COMPLETE);
 241:FrameMgr.c    **** 			}
 242:FrameMgr.c    **** 			break;
 243:FrameMgr.c    **** 			
 244:FrameMgr.c    **** 		case EV_DISABLE_TRACKING:
 245:FrameMgr.c    **** 			/* tracking needs to be turned off */
 246:FrameMgr.c    **** 			currentState = ST_FrameMgr_idle;
 247:FrameMgr.c    **** 			break;
 248:FrameMgr.c    **** 	}
GAS LISTING C:\Users\Joe\AppData\Local\Temp\ccGFCZfB.s 			page 6


 249:FrameMgr.c    **** }
 250:FrameMgr.c    **** 
 251:FrameMgr.c    **** /***********************************************************
 252:FrameMgr.c    **** 	Function Name: FrameMgr_acquireFrame
 253:FrameMgr.c    **** 	Function Description: This function is responsible for
 254:FrameMgr.c    **** 	beginning of the acquisition of a new frame of data
 255:FrameMgr.c    **** 	from the camera interface. The acquisition of this line 
 256:FrameMgr.c    **** 	depends on the current state of the FrameMgr.
 257:FrameMgr.c    **** 	Inputs:  none
 258:FrameMgr.c    **** 	Outputs: none
 259:FrameMgr.c    **** ***********************************************************/	
 260:FrameMgr.c    **** void FrameMgr_acquireFrame(void)
 261:FrameMgr.c    **** {
  38               		.loc 1 261 0
  39               		.cfi_startproc
  40               	/* prologue: function */
  41               	/* frame size = 0 */
  42               	/* stack size = 0 */
  43               	.L__stack_usage = 0
 262:FrameMgr.c    **** 	if (currentState == ST_FrameMgr_TrackingFrame)
  44               		.loc 1 262 0
  45 0010 8091 0000 		lds r24,currentState
  46 0014 8130      		cpi r24,lo8(1)
  47 0016 01F4      		brne .L2
 263:FrameMgr.c    **** 	{
 264:FrameMgr.c    **** 		trackedLineCount = 0;
  48               		.loc 1 264 0
  49 0018 1092 0000 		sts trackedLineCount,__zero_reg__
 265:FrameMgr.c    **** 		numPrevTrackedObjects = numCurrTrackedObjects;
 266:FrameMgr.c    **** 		numCurrTrackedObjects = 0;
  50               		.loc 1 266 0
  51 001c 1092 0000 		sts numCurrTrackedObjects,__zero_reg__
 267:FrameMgr.c    **** 		
 268:FrameMgr.c    **** 		/* clear out the tracking table, and wait for the new frame
 269:FrameMgr.c    **** 		to start */
 270:FrameMgr.c    **** 		memset(trackedObjectTable,0x00,sizeof(trackedObjectTable));
  52               		.loc 1 270 0
  53 0020 80E4      		ldi r24,lo8(64)
  54 0022 E0E0      		ldi r30,lo8(trackedObjectTable)
  55 0024 F0E0      		ldi r31,hi8(trackedObjectTable)
  56 0026 DF01      		movw r26,r30
  57               		0:
  58 0028 1D92      		st X+,__zero_reg__
  59 002a 8A95      		dec r24
  60 002c 01F4      		brne 0b
  61               	.L4:
 271:FrameMgr.c    **** 		//CamIntAsm_waitForNewTrackingFrame(currentLineBuffer,colorMap);
 272:FrameMgr.c    ****         WAIT_FOR_VSYNC_HIGH();
  62               		.loc 1 272 0 discriminator 1
  63 002e 829B      		sbis 0x10,2
  64 0030 00C0      		rjmp .L4
 273:FrameMgr.c    ****         CamIntAsm_acquireTrackingLine(currentLineBuffer,colorMap);
  65               		.loc 1 273 0
  66 0032 60E0      		ldi r22,lo8(colorMap)
  67 0034 70E0      		ldi r23,hi8(colorMap)
  68 0036 80E0      		ldi r24,lo8(currentLineBuffer)
  69 0038 90E0      		ldi r25,hi8(currentLineBuffer)
GAS LISTING C:\Users\Joe\AppData\Local\Temp\ccGFCZfB.s 			page 7


  70 003a 00D0      		rcall CamIntAsm_acquireTrackingLine
  71               	.LVL0:
  72               	.L2:
  73 003c 0895      		ret
  74               		.cfi_endproc
  75               	.LFE6:
  76               		.size	FrameMgr_acquireFrame, .-FrameMgr_acquireFrame
  77               	.global	FrameMgr_acquireLine
  78               		.type	FrameMgr_acquireLine, @function
  79               	FrameMgr_acquireLine:
  80               	.LFB7:
 274:FrameMgr.c    **** 	}
 275:FrameMgr.c    **** }
 276:FrameMgr.c    **** 
 277:FrameMgr.c    **** /***********************************************************
 278:FrameMgr.c    **** 	Function Name: FrameMgr_acquireLine
 279:FrameMgr.c    **** 	Function Description: This function is responsible for
 280:FrameMgr.c    **** 	acquiring a line of data from the camera interface.
 281:FrameMgr.c    **** 	The acquisition of this line depends on the current
 282:FrameMgr.c    **** 	state of the FrameMgr.
 283:FrameMgr.c    **** 	Inputs:  none
 284:FrameMgr.c    **** 	Outputs: none
 285:FrameMgr.c    **** ***********************************************************/	
 286:FrameMgr.c    **** void FrameMgr_acquireLine(void)
 287:FrameMgr.c    **** {
  81               		.loc 1 287 0
  82               		.cfi_startproc
  83               	/* prologue: function */
  84               	/* frame size = 0 */
  85               	/* stack size = 0 */
  86               	.L__stack_usage = 0
 288:FrameMgr.c    **** 	unsigned char tmpLineCount;
 289:FrameMgr.c    **** 	
 290:FrameMgr.c    **** 	/* clearing out the buffers takes too long...we should
 291:FrameMgr.c    **** 	just overwrite the data here without a problem when
 292:FrameMgr.c    **** 	we start acquiring...at no point do we check for 
 293:FrameMgr.c    **** 	a 0x00 value in the current or previous lineBuffers,
 294:FrameMgr.c    **** 	so it was a bit excessive :-)  */
 295:FrameMgr.c    **** 	
 296:FrameMgr.c    **** 	/* check which state we are in and proceed as needed */
 297:FrameMgr.c    **** 	if (currentState == ST_FrameMgr_DumpingFrame)
  87               		.loc 1 297 0
  88 003e 8091 0000 		lds r24,currentState
  89 0042 8230      		cpi r24,lo8(2)
  90 0044 01F4      		brne .L7
 298:FrameMgr.c    **** 	{
 299:FrameMgr.c    **** 		tmpLineCount = lineCount*2;
  91               		.loc 1 299 0
  92 0046 8091 0000 		lds r24,lineCount
  93 004a 880F      		lsl r24
  94               	.LVL1:
 300:FrameMgr.c    ****         
 301:FrameMgr.c    ****         /* clearing out the line data in dump mode is ok, and actually
 302:FrameMgr.c    ****         is needed, since it is possible for the first dump line in
 303:FrameMgr.c    ****         a frame to come back with the last line captured of the
 304:FrameMgr.c    ****         last capture session...*/
 305:FrameMgr.c    ****         memset(currentLineBuffer,0x00,LENGTH_OF_LINE_BUFFER);
GAS LISTING C:\Users\Joe\AppData\Local\Temp\ccGFCZfB.s 			page 8


  95               		.loc 1 305 0
  96 004c 90EB      		ldi r25,lo8(-80)
  97 004e E0E0      		ldi r30,lo8(currentLineBuffer)
  98 0050 F0E0      		ldi r31,hi8(currentLineBuffer)
  99 0052 DF01      		movw r26,r30
 100 0054 292F      		mov r18,r25
 101               		0:
 102 0056 1D92      		st X+,__zero_reg__
 103 0058 2A95      		dec r18
 104 005a 01F4      		brne 0b
 306:FrameMgr.c    ****         memset(previousLineBuffer,0x00,LENGTH_OF_LINE_BUFFER);
 105               		.loc 1 306 0
 106 005c E0E0      		ldi r30,lo8(previousLineBuffer)
 107 005e F0E0      		ldi r31,hi8(previousLineBuffer)
 108 0060 DF01      		movw r26,r30
 109               		0:
 110 0062 1D92      		st X+,__zero_reg__
 111 0064 9A95      		dec r25
 112 0066 01F4      		brne 0b
 113               	.L8:
 307:FrameMgr.c    **** 		/* wait for another VSYNC so we know which frame to use 
 308:FrameMgr.c    **** 		to start looking for a line to receive */
 309:FrameMgr.c    **** 		WAIT_FOR_VSYNC_HIGH();  
 114               		.loc 1 309 0 discriminator 1
 115 0068 829B      		sbis 0x10,2
 116 006a 00C0      		rjmp .L8
 117               	.L19:
 310:FrameMgr.c    **** 		WAIT_FOR_VSYNC_LOW();
 118               		.loc 1 310 0 discriminator 1
 119 006c 8299      		sbic 0x10,2
 120 006e 00C0      		rjmp .L19
 121 0070 00C0      		rjmp .L27
 122               	.L11:
 311:FrameMgr.c    **** 		
 312:FrameMgr.c    **** 		/* look at lineCount to determine how many HREFs we should
 313:FrameMgr.c    **** 		wait before we start sampling */
 314:FrameMgr.c    **** 		while(tmpLineCount != 0)
 315:FrameMgr.c    **** 		{
 316:FrameMgr.c    **** 			WAIT_FOR_HREF_HIGH(); 
 123               		.loc 1 316 0 discriminator 1
 124 0072 849B      		sbis 0x10,4
 125 0074 00C0      		rjmp .L11
 317:FrameMgr.c    **** 			tmpLineCount--;
 126               		.loc 1 317 0
 127 0076 8150      		subi r24,lo8(-(-1))
 128               	.LVL2:
 129               	.L12:
 318:FrameMgr.c    **** 			WAIT_FOR_HREF_LOW(); 
 130               		.loc 1 318 0 discriminator 1
 131 0078 8499      		sbic 0x10,4
 132 007a 00C0      		rjmp .L12
 133 007c 00C0      		rjmp .L28
 134               	.L27:
 314:FrameMgr.c    **** 		{
 135               		.loc 1 314 0
 136 007e 8111      		cpse r24,__zero_reg__
 137 0080 00C0      		rjmp .L11
GAS LISTING C:\Users\Joe\AppData\Local\Temp\ccGFCZfB.s 			page 9


 138 0082 00C0      		rjmp .L15
 139               	.L28:
 140 0084 8111      		cpse r24,__zero_reg__
 141 0086 00C0      		rjmp .L11
 142               	.L15:
 319:FrameMgr.c    **** 		}
 320:FrameMgr.c    **** 		
 321:FrameMgr.c    **** 		/*  we should now be ready to sample our line...*/
 322:FrameMgr.c    **** 		CamIntAsm_acquireDumpLine(currentLineBuffer,previousLineBuffer);
 143               		.loc 1 322 0
 144 0088 60E0      		ldi r22,lo8(previousLineBuffer)
 145 008a 70E0      		ldi r23,hi8(previousLineBuffer)
 146 008c 80E0      		ldi r24,lo8(currentLineBuffer)
 147 008e 90E0      		ldi r25,hi8(currentLineBuffer)
 148               	.LVL3:
 149 0090 00D0      		rcall CamIntAsm_acquireDumpLine
 150               	.LVL4:
 151 0092 0895      		ret
 152               	.L7:
 323:FrameMgr.c    **** 	}		
 324:FrameMgr.c    **** 	else if (currentState == ST_FrameMgr_TrackingFrame)
 153               		.loc 1 324 0
 154 0094 8130      		cpi r24,lo8(1)
 155 0096 01F4      		brne .L6
 156               	.L20:
 325:FrameMgr.c    **** 	{
 326:FrameMgr.c    **** 		WAIT_FOR_HREF_LOW();
 157               		.loc 1 326 0 discriminator 1
 158 0098 8499      		sbic 0x10,4
 159 009a 00C0      		rjmp .L20
 327:FrameMgr.c    **** 		CamIntAsm_acquireTrackingLine(currentLineBuffer,colorMap);
 160               		.loc 1 327 0
 161 009c 60E0      		ldi r22,lo8(colorMap)
 162 009e 70E0      		ldi r23,hi8(colorMap)
 163 00a0 80E0      		ldi r24,lo8(currentLineBuffer)
 164 00a2 90E0      		ldi r25,hi8(currentLineBuffer)
 165 00a4 00D0      		rcall CamIntAsm_acquireTrackingLine
 166               	.LVL5:
 167               	.L6:
 168 00a6 0895      		ret
 169               		.cfi_endproc
 170               	.LFE7:
 171               		.size	FrameMgr_acquireLine, .-FrameMgr_acquireLine
 172               	.global	FrameMgr_processLine
 173               		.type	FrameMgr_processLine, @function
 174               	FrameMgr_processLine:
 175               	.LFB8:
 328:FrameMgr.c    **** 	}
 329:FrameMgr.c    **** }
 330:FrameMgr.c    **** 
 331:FrameMgr.c    **** /***********************************************************
 332:FrameMgr.c    **** 	Function Name: FrameMgr_processLine
 333:FrameMgr.c    **** 	Function Description: This function is responsible for
 334:FrameMgr.c    **** 	parsing the received image line and performing either
 335:FrameMgr.c    **** 	connected region mapping (if in the Tracking state) or
 336:FrameMgr.c    **** 	sending out the raw sampled data (if in the Dumping
 337:FrameMgr.c    **** 	state).
GAS LISTING C:\Users\Joe\AppData\Local\Temp\ccGFCZfB.s 			page 10


 338:FrameMgr.c    **** 	Inputs:  none
 339:FrameMgr.c    **** 	Outputs: none
 340:FrameMgr.c    **** ***********************************************************/	
 341:FrameMgr.c    **** void FrameMgr_processLine(void)
 342:FrameMgr.c    **** {
 176               		.loc 1 342 0
 177               		.cfi_startproc
 178 00a8 AF92      		push r10
 179               	.LCFI0:
 180               		.cfi_def_cfa_offset 3
 181               		.cfi_offset 10, -2
 182 00aa BF92      		push r11
 183               	.LCFI1:
 184               		.cfi_def_cfa_offset 4
 185               		.cfi_offset 11, -3
 186 00ac CF92      		push r12
 187               	.LCFI2:
 188               		.cfi_def_cfa_offset 5
 189               		.cfi_offset 12, -4
 190 00ae DF92      		push r13
 191               	.LCFI3:
 192               		.cfi_def_cfa_offset 6
 193               		.cfi_offset 13, -5
 194 00b0 EF92      		push r14
 195               	.LCFI4:
 196               		.cfi_def_cfa_offset 7
 197               		.cfi_offset 14, -6
 198 00b2 FF92      		push r15
 199               	.LCFI5:
 200               		.cfi_def_cfa_offset 8
 201               		.cfi_offset 15, -7
 202 00b4 0F93      		push r16
 203               	.LCFI6:
 204               		.cfi_def_cfa_offset 9
 205               		.cfi_offset 16, -8
 206 00b6 1F93      		push r17
 207               	.LCFI7:
 208               		.cfi_def_cfa_offset 10
 209               		.cfi_offset 17, -9
 210 00b8 CF93      		push r28
 211               	.LCFI8:
 212               		.cfi_def_cfa_offset 11
 213               		.cfi_offset 28, -10
 214 00ba DF93      		push r29
 215               	.LCFI9:
 216               		.cfi_def_cfa_offset 12
 217               		.cfi_offset 29, -11
 218 00bc 1F92      		push __zero_reg__
 219               	.LCFI10:
 220               		.cfi_def_cfa_offset 13
 221 00be CDB7      		in r28,__SP_L__
 222 00c0 DEB7      		in r29,__SP_H__
 223               	.LCFI11:
 224               		.cfi_def_cfa_register 28
 225               	/* prologue: function */
 226               	/* frame size = 1 */
 227               	/* stack size = 11 */
GAS LISTING C:\Users\Joe\AppData\Local\Temp\ccGFCZfB.s 			page 11


 228               	.L__stack_usage = 11
 229               	.LVL6:
 343:FrameMgr.c    **** 	unsigned char i;
 344:FrameMgr.c    **** 	volatile unsigned char dataToSend;
 345:FrameMgr.c    **** 	unsigned char *pTrackedObjectData = (unsigned char *)pCurrentTrackedObjectTable;
 346:FrameMgr.c    **** #ifdef DEBUG_TRACKED_LINE    
 347:FrameMgr.c    **** 	unsigned char *pSendData;
 348:FrameMgr.c    ****     unsigned char asciiBuffer[5];
 349:FrameMgr.c    ****     unsigned char pixelCount = 0;
 350:FrameMgr.c    **** #endif    
 351:FrameMgr.c    **** 	
 352:FrameMgr.c    **** 	if (currentState == ST_FrameMgr_DumpingFrame)
 230               		.loc 1 352 0
 231 00c2 8091 0000 		lds r24,currentState
 232 00c6 8230      		cpi r24,lo8(2)
 233 00c8 01F0      		breq .+2
 234 00ca 00C0      		rjmp .L30
 353:FrameMgr.c    **** 	{
 354:FrameMgr.c    **** 		/* we want to sit in a tight loop and send the acquired data
 355:FrameMgr.c    **** 		sitting in current and previous line buffers out the serial
 356:FrameMgr.c    **** 		port...it is sent out the serial port immediately instead
 357:FrameMgr.c    **** 		of going into the UIMgr tx fifo because we can't do anything
 358:FrameMgr.c    **** 		until its sent out anyway...may as well just get it out now	*/
 359:FrameMgr.c    **** 		
 360:FrameMgr.c    **** 		/* currentLineBuffer is getting "g" previousLineBuffer is getting "b-r" */
 361:FrameMgr.c    **** 		UartInt_txByte(0x0B);			/* send the header byte */
 235               		.loc 1 361 0
 236 00cc 8BE0      		ldi r24,lo8(11)
 237 00ce 00D0      		rcall UartInt_txByte
 238               	.LVL7:
 362:FrameMgr.c    **** 		UartInt_txByte(lineCount);		/* send the line count */
 239               		.loc 1 362 0
 240 00d0 8091 0000 		lds r24,lineCount
 241 00d4 00D0      		rcall UartInt_txByte
 242               	.LVL8:
 243 00d6 00E0      		ldi r16,lo8(currentLineBuffer)
 244 00d8 10E0      		ldi r17,hi8(currentLineBuffer)
 245 00da 0F2E      		mov __tmp_reg__,r31
 246 00dc F0E0      		ldi r31,lo8(previousLineBuffer)
 247 00de EF2E      		mov r14,r31
 248 00e0 F0E0      		ldi r31,hi8(previousLineBuffer)
 249 00e2 FF2E      		mov r15,r31
 250 00e4 F02D      		mov r31,__tmp_reg__
 251 00e6 0F2E      		mov __tmp_reg__,r31
 252 00e8 F0E0      		ldi r31,lo8(currentLineBuffer+176)
 253 00ea CF2E      		mov r12,r31
 254 00ec F0E0      		ldi r31,hi8(currentLineBuffer+176)
 255 00ee DF2E      		mov r13,r31
 256 00f0 F02D      		mov r31,__tmp_reg__
 257               	.LVL9:
 258               	.L31:
 363:FrameMgr.c    **** 		for (i=0; i<NUM_PIXELS_IN_A_DUMP_LINE; i+=2)
 364:FrameMgr.c    **** 		{
 365:FrameMgr.c    **** 			/* when a dump line is sampled, the upper byte can potentially
 366:FrameMgr.c    **** 			have garbage in it...we don't have time to mask it off as we're
 367:FrameMgr.c    **** 			sampling, so it is done here before we send it out...we also
 368:FrameMgr.c    **** 			combine the samples together so we really are sending up a
GAS LISTING C:\Users\Joe\AppData\Local\Temp\ccGFCZfB.s 			page 12


 369:FrameMgr.c    **** 			sample for line N as well as line N+1 */
 370:FrameMgr.c    **** 			dataToSend = currentLineBuffer[i];
 259               		.loc 1 370 0 discriminator 3
 260 00f2 F801      		movw r30,r16
 261 00f4 8081      		ld r24,Z
 262 00f6 8983      		std Y+1,r24
 371:FrameMgr.c    **** 			dataToSend &= 0x0F;
 263               		.loc 1 371 0 discriminator 3
 264 00f8 8981      		ldd r24,Y+1
 265 00fa 8F70      		andi r24,lo8(15)
 266 00fc 8983      		std Y+1,r24
 372:FrameMgr.c    **** 			dataToSend <<= 4;
 267               		.loc 1 372 0 discriminator 3
 268 00fe 8981      		ldd r24,Y+1
 269 0100 8295      		swap r24
 270 0102 807F      		andi r24,lo8(-16)
 271 0104 8983      		std Y+1,r24
 373:FrameMgr.c    **** 			dataToSend |= (previousLineBuffer[i] & 0x0F);
 272               		.loc 1 373 0 discriminator 3
 273 0106 9981      		ldd r25,Y+1
 274 0108 F701      		movw r30,r14
 275 010a 8081      		ld r24,Z
 276 010c 8F70      		andi r24,lo8(15)
 277 010e 892B      		or r24,r25
 278 0110 8983      		std Y+1,r24
 374:FrameMgr.c    **** 			
 375:FrameMgr.c    **** 			/* dataToSend should be packed now */
 376:FrameMgr.c    **** 			UartInt_txByte(dataToSend);
 279               		.loc 1 376 0 discriminator 3
 280 0112 8981      		ldd r24,Y+1
 281 0114 00D0      		rcall UartInt_txByte
 282               	.LVL10:
 377:FrameMgr.c    **** 			
 378:FrameMgr.c    **** 			/* flip the colors around since we are doing all G on Y and BR on UV */
 379:FrameMgr.c    **** 			dataToSend = previousLineBuffer[i+1];
 283               		.loc 1 379 0 discriminator 3
 284 0116 F701      		movw r30,r14
 285 0118 8181      		ldd r24,Z+1
 286 011a 8983      		std Y+1,r24
 380:FrameMgr.c    **** 			dataToSend &= 0x0F;
 287               		.loc 1 380 0 discriminator 3
 288 011c 8981      		ldd r24,Y+1
 289 011e 8F70      		andi r24,lo8(15)
 290 0120 8983      		std Y+1,r24
 381:FrameMgr.c    **** 			dataToSend <<= 4;
 291               		.loc 1 381 0 discriminator 3
 292 0122 8981      		ldd r24,Y+1
 293 0124 8295      		swap r24
 294 0126 807F      		andi r24,lo8(-16)
 295 0128 8983      		std Y+1,r24
 382:FrameMgr.c    **** 			dataToSend |= (currentLineBuffer[i+1] & 0x0F);
 296               		.loc 1 382 0 discriminator 3
 297 012a 9981      		ldd r25,Y+1
 298 012c F801      		movw r30,r16
 299 012e 8181      		ldd r24,Z+1
 300 0130 8F70      		andi r24,lo8(15)
 301 0132 892B      		or r24,r25
GAS LISTING C:\Users\Joe\AppData\Local\Temp\ccGFCZfB.s 			page 13


 302 0134 8983      		std Y+1,r24
 383:FrameMgr.c    **** 			
 384:FrameMgr.c    **** 			/* dataToSend should be packed now */
 385:FrameMgr.c    **** 			UartInt_txByte(dataToSend);
 303               		.loc 1 385 0 discriminator 3
 304 0136 8981      		ldd r24,Y+1
 305 0138 00D0      		rcall UartInt_txByte
 306               	.LVL11:
 307 013a 0E5F      		subi r16,-2
 308 013c 1F4F      		sbci r17,-1
 309               	.LVL12:
 310 013e F2E0      		ldi r31,2
 311 0140 EF0E      		add r14,r31
 312 0142 F11C      		adc r15,__zero_reg__
 363:FrameMgr.c    **** 		{
 313               		.loc 1 363 0 discriminator 3
 314 0144 0C15      		cp r16,r12
 315 0146 1D05      		cpc r17,r13
 316 0148 01F4      		brne .L31
 386:FrameMgr.c    **** 		}
 387:FrameMgr.c    **** 		UartInt_txByte(0x0F);  /* send line end */
 317               		.loc 1 387 0
 318 014a 8FE0      		ldi r24,lo8(15)
 319 014c 00D0      		rcall UartInt_txByte
 320               	.LVL13:
 388:FrameMgr.c    **** 		/* once all the data is sent, increment out line count by 2 since
 389:FrameMgr.c    **** 		we really get 2 lines worth of pixels on each pass */
 390:FrameMgr.c    **** 		/* Update...increment only by 1, but only send 72 double-lines */
 391:FrameMgr.c    **** 		lineCount++;
 321               		.loc 1 391 0
 322 014e 8091 0000 		lds r24,lineCount
 323 0152 8F5F      		subi r24,lo8(-(1))
 324 0154 8093 0000 		sts lineCount,r24
 392:FrameMgr.c    **** 		
 393:FrameMgr.c    **** 		/* check to see if we have retrieved all of the needed lines */
 394:FrameMgr.c    **** 		if (lineCount >= 72)  /* half 144, since we send two lines at a time */
 325               		.loc 1 394 0
 326 0158 8834      		cpi r24,lo8(72)
 327 015a 00F0      		brlo .L32
 395:FrameMgr.c    **** 		{
 396:FrameMgr.c    **** 			/* we're done, so send the dump complete?...nope, just change
 397:FrameMgr.c    **** 			states and we should be fine */
 398:FrameMgr.c    **** 			lineCount = 0;
 328               		.loc 1 398 0
 329 015c 1092 0000 		sts lineCount,__zero_reg__
 399:FrameMgr.c    **** 			currentState = ST_FrameMgr_idle;
 330               		.loc 1 399 0
 331 0160 1092 0000 		sts currentState,__zero_reg__
 400:FrameMgr.c    **** 			
 401:FrameMgr.c    **** 			/* disable the PCLK counting overflow interrupt */
 402:FrameMgr.c    **** 			TIMSK &= DISABLE_PCLK_TIMER1_OVERFLOW_BITMASK;
 332               		.loc 1 402 0
 333 0164 89B7      		in r24,0x39
 334 0166 8B7F      		andi r24,lo8(-5)
 335 0168 89BF      		out 0x39,r24
 403:FrameMgr.c    **** 			
 404:FrameMgr.c    **** 			CamConfig_setCamReg(0x11,0x00);  /* reset the frame rate to normal*/
GAS LISTING C:\Users\Joe\AppData\Local\Temp\ccGFCZfB.s 			page 14


 336               		.loc 1 404 0
 337 016a 60E0      		ldi r22,0
 338 016c 81E1      		ldi r24,lo8(17)
 339 016e 00D0      		rcall CamConfig_setCamReg
 340               	.LVL14:
 405:FrameMgr.c    **** 			CamConfig_sendFifoCmds();
 341               		.loc 1 405 0
 342 0170 00D0      		rcall CamConfig_sendFifoCmds
 343               	.LVL15:
 344 0172 00C0      		rjmp .L29
 345               	.L32:
 406:FrameMgr.c    **** 		}
 407:FrameMgr.c    **** 		else
 408:FrameMgr.c    **** 		{
 409:FrameMgr.c    **** 			/* we have more lines to acquire in this frame, so keep on truckin...*/
 410:FrameMgr.c    **** 			PUBLISH_FAST_EVENT(FEV_PROCESS_LINE_COMPLETE);
 346               		.loc 1 410 0
 347 0174 8091 0000 		lds r24,fastEventBitmask
 348 0178 8260      		ori r24,lo8(2)
 349 017a 8093 0000 		sts fastEventBitmask,r24
 350 017e 00C0      		rjmp .L29
 351               	.LVL16:
 352               	.L30:
 411:FrameMgr.c    **** 		}
 412:FrameMgr.c    **** 	}
 413:FrameMgr.c    **** 	else if (currentState == ST_FrameMgr_TrackingFrame)
 353               		.loc 1 413 0
 354 0180 8130      		cpi r24,lo8(1)
 355 0182 01F0      		breq .+2
 356 0184 00C0      		rjmp .L29
 357               	.LBB4:
 358               	.LBB5:
 414:FrameMgr.c    **** 	{
 415:FrameMgr.c    **** #ifdef DEBUG_TRACKED_LINE	
 416:FrameMgr.c    **** 		/* send the received line over serial...this should only send
 417:FrameMgr.c    **** 		until a pixelCount == 176 */
 418:FrameMgr.c    **** 		pSendData = currentLineBuffer;
 419:FrameMgr.c    **** 		itoa(trackedLineCount,asciiBuffer,10);
 420:FrameMgr.c    **** 		UIMgr_txBuffer(asciiBuffer,3);
 421:FrameMgr.c    **** 		UIMgr_txBuffer(" ",1);
 422:FrameMgr.c    **** 		while(pixelCount < ACTUAL_NUM_PIXELS_IN_A_LINE)  
 423:FrameMgr.c    **** 		{
 424:FrameMgr.c    **** 			memset(asciiBuffer,0x00,5);
 425:FrameMgr.c    **** 			itoa(*pSendData++,asciiBuffer,10);	/* color is first byte */
 426:FrameMgr.c    **** 			UIMgr_txBuffer(asciiBuffer,3); /* 3 ascii bytes for data */
 427:FrameMgr.c    **** 			UIMgr_txBuffer(" ",1);
 428:FrameMgr.c    **** 
 429:FrameMgr.c    **** 			pixelCount += *pSendData;	/* run-length is second byte */
 430:FrameMgr.c    **** 			memset(asciiBuffer,0x00,5);
 431:FrameMgr.c    **** 			itoa(*pSendData++,asciiBuffer,10);
 432:FrameMgr.c    **** 			UIMgr_txBuffer(asciiBuffer,3);
 433:FrameMgr.c    **** 			UIMgr_txBuffer(" ",1);
 434:FrameMgr.c    **** 		}
 435:FrameMgr.c    **** 		UIMgr_txBuffer("\n\r",2);
 436:FrameMgr.c    **** 
 437:FrameMgr.c    **** 		trackedLineCount++;
 438:FrameMgr.c    **** 		if (trackedLineCount == 144)
GAS LISTING C:\Users\Joe\AppData\Local\Temp\ccGFCZfB.s 			page 15


 439:FrameMgr.c    **** 		{
 440:FrameMgr.c    **** 			UIMgr_txBuffer("  FC  \n\r",8);
 441:FrameMgr.c    **** 			trackedLineCount = 0;
 442:FrameMgr.c    **** 			PUBLISH_EVENT(EV_PROCESS_FRAME_COMPLETE);
 443:FrameMgr.c    **** 		}
 444:FrameMgr.c    **** 		else
 445:FrameMgr.c    **** 		{
 446:FrameMgr.c    **** 			PUBLISH_EVENT(EV_PROCESS_LINE_COMPLETE);
 447:FrameMgr.c    **** 		}	
 448:FrameMgr.c    **** #else
 449:FrameMgr.c    ****         /* determine if any of the RLE blocks overlap */
 450:FrameMgr.c    **** 		FrameMgr_findConnectedness();
 451:FrameMgr.c    ****         
 452:FrameMgr.c    ****         /* we also want to remove any objects that are less than
 453:FrameMgr.c    ****         a minimum height...we already removed portions of the 
 454:FrameMgr.c    ****         run-length that are less than MIN_PIXEL_WIDTH in the
 455:FrameMgr.c    ****         findConnectedness() routine...doing it here instead of 
 456:FrameMgr.c    ****         a function to speed things up...this may end up slowing down the
 457:FrameMgr.c    ****         frame rate slightly, and can be removed if this isn't needed */
 458:FrameMgr.c    ****   
 459:FrameMgr.c    ****         /* run this routine once every 8 lines */       
 460:FrameMgr.c    ****         if ( (trackedLineCount & RUN_OBJECT_FILTER_MASK) == RUN_OBJECT_FILTER_MASK)
 461:FrameMgr.c    ****         {
 462:FrameMgr.c    ****             for (i=0; i<MAX_TRACKED_OBJECTS; i++)
 463:FrameMgr.c    ****             {
 464:FrameMgr.c    ****                 if ( *(pTrackedObjectData + VALID_OBJECT_OFFSET) == TRUE)
 465:FrameMgr.c    ****                 {
 466:FrameMgr.c    ****                     /* check to see if the object is already in
 467:FrameMgr.c    ****                     our past...i.e., its last */
 468:FrameMgr.c    ****                     if ( (*(pTrackedObjectData + Y_LOWER_RIGHT_OFFSET) - 
 469:FrameMgr.c    ****                           *(pTrackedObjectData + Y_UPPER_LEFT_OFFSET)) < MIN_OBJECT_TRACKING_HEIGHT
 470:FrameMgr.c    ****                     {
 471:FrameMgr.c    ****                         /* the object is less than the minimum height...see if it is adjacent
 472:FrameMgr.c    ****                         to the current line we just processed...if so, leave it here...otherwise,
 473:FrameMgr.c    ****                         it needs to be invalidated since its too small */
 474:FrameMgr.c    ****                         if ( trackedLineCount - *(pTrackedObjectData + Y_LOWER_RIGHT_OFFSET) > 2)
 475:FrameMgr.c    ****                         {
 476:FrameMgr.c    ****                             /* invalidate the object */
 477:FrameMgr.c    ****                             *(pTrackedObjectData + VALID_OBJECT_OFFSET) = FALSE;
 478:FrameMgr.c    ****                             numCurrTrackedObjects--;
 479:FrameMgr.c    ****                         }
 480:FrameMgr.c    ****                     }
 481:FrameMgr.c    ****                 }
 482:FrameMgr.c    ****                 pTrackedObjectData += SIZE_OF_TRACKED_OBJECT;
 483:FrameMgr.c    ****             }
 484:FrameMgr.c    ****         }     
 485:FrameMgr.c    ****  
 486:FrameMgr.c    **** 		trackedLineCount++;
 487:FrameMgr.c    **** 		if (trackedLineCount == ACTUAL_NUM_LINES_IN_A_FRAME)
 488:FrameMgr.c    **** 		{
 489:FrameMgr.c    **** 			/* an entire frame of tracking data has been acquired, so
 490:FrameMgr.c    **** 			publish an event letting the system know this fact */
 491:FrameMgr.c    **** 			PUBLISH_EVENT(EV_ACQUIRE_FRAME_COMPLETE);
 492:FrameMgr.c    **** 			/* disable the PCLK counting overflow interrupt */
 493:FrameMgr.c    **** 			TIMSK &= DISABLE_PCLK_TIMER1_OVERFLOW_BITMASK;
 494:FrameMgr.c    **** 			trackedLineCount = 0;
 495:FrameMgr.c    **** 		}
GAS LISTING C:\Users\Joe\AppData\Local\Temp\ccGFCZfB.s 			page 16


 496:FrameMgr.c    **** 		else
 497:FrameMgr.c    **** 		{
 498:FrameMgr.c    **** 			PUBLISH_FAST_EVENT(FEV_PROCESS_LINE_COMPLETE);
 499:FrameMgr.c    **** 		}
 500:FrameMgr.c    **** #endif		
 501:FrameMgr.c    **** 	}
 502:FrameMgr.c    **** 	else
 503:FrameMgr.c    **** 	{
 504:FrameMgr.c    **** 		/* ...and here? */
 505:FrameMgr.c    **** 	}
 506:FrameMgr.c    **** }
 507:FrameMgr.c    **** 
 508:FrameMgr.c    **** /***********************************************************
 509:FrameMgr.c    **** 	Function Name: FrameMgr_processFrame
 510:FrameMgr.c    **** 	Function Description: This function is responsible for
 511:FrameMgr.c    **** 	parsing the completed frame and performing all actions
 512:FrameMgr.c    **** 	needed at this level.
 513:FrameMgr.c    **** 	Inputs:  none
 514:FrameMgr.c    **** 	Outputs: none
 515:FrameMgr.c    **** ***********************************************************/	
 516:FrameMgr.c    **** void FrameMgr_processFrame(void)
 517:FrameMgr.c    **** {
 518:FrameMgr.c    **** 	unsigned char i,k,color;
 519:FrameMgr.c    **** #if DEBUG_FRAME_DATA    
 520:FrameMgr.c    **** 	unsigned char asciiBuffer[5];
 521:FrameMgr.c    ****     unsigned char j;
 522:FrameMgr.c    **** #endif    
 523:FrameMgr.c    **** 	unsigned char *pTableData = (unsigned char *)pCurrentTrackedObjectTable;
 524:FrameMgr.c    **** 	unsigned char tmpUpperLeftX,tmpUpperLeftY,tmpLowerRightX,tmpLowerRightY;
 525:FrameMgr.c    **** 	
 526:FrameMgr.c    **** #if DEBUG_FRAME_DATA	
 527:FrameMgr.c    **** 	/* we want to send all of the currently tracked table out
 528:FrameMgr.c    **** 	the serial port for debugging */
 529:FrameMgr.c    **** 	for (i=0; i<numCurrTrackedObjects; i++)
 530:FrameMgr.c    **** 	{
 531:FrameMgr.c    **** 		UIMgr_txBuffer("----------\r\n",12);
 532:FrameMgr.c    **** 		for (j=0; j<SIZE_OF_TRACKED_OBJECT; j++)
 533:FrameMgr.c    **** 		{
 534:FrameMgr.c    **** 			memset(asciiBuffer,0x00,5);
 535:FrameMgr.c    **** 			itoa(*pTableData++,asciiBuffer,10);
 536:FrameMgr.c    **** 			UIMgr_txBuffer(asciiBuffer,3); /* 3 ascii bytes for data
 537:FrameMgr.c    **** 														+ 1 space */
 538:FrameMgr.c    **** 			UIMgr_txBuffer("\r\n",2);
 539:FrameMgr.c    **** 		}
 540:FrameMgr.c    **** 	}
 541:FrameMgr.c    **** 	
 542:FrameMgr.c    **** 	/* finally, send a new line */
 543:FrameMgr.c    **** 	UIMgr_txBuffer("\r\n",2);
 544:FrameMgr.c    **** 	
 545:FrameMgr.c    **** 	memset(asciiBuffer,0x00,5);
 546:FrameMgr.c    **** 	itoa(numCurrTrackedObjects,asciiBuffer,10);
 547:FrameMgr.c    **** 	UIMgr_txBuffer(asciiBuffer,3);
 548:FrameMgr.c    **** 	UIMgr_txBuffer(" PFC\r\n",5);
 549:FrameMgr.c    **** 
 550:FrameMgr.c    **** #else	
 551:FrameMgr.c    **** 	/* we only send tracking packets if there are tracked objects */	        
 552:FrameMgr.c    ****     
GAS LISTING C:\Users\Joe\AppData\Local\Temp\ccGFCZfB.s 			page 17


 553:FrameMgr.c    **** 	if (numCurrTrackedObjects > 0)
 554:FrameMgr.c    **** 	{		
 555:FrameMgr.c    **** 		UIMgr_writeTxFifo(0x0A);					/* header byte for a tracking packet */
 556:FrameMgr.c    ****         /* reset the pointer */
 557:FrameMgr.c    ****         pTableData = (unsigned char *)pCurrentTrackedObjectTable;
 558:FrameMgr.c    ****         
 559:FrameMgr.c    **** 		UIMgr_writeTxFifo(numCurrTrackedObjects);	/* num of objects tracked */
 560:FrameMgr.c    **** 		for (i=0; i<MAX_TRACKED_OBJECTS; i++)
 561:FrameMgr.c    **** 		{
 562:FrameMgr.c    ****             /* we only want to process objects that have their objectValid flag
 563:FrameMgr.c    ****             set to TRUE */
 564:FrameMgr.c    ****             if ( *(pTableData + VALID_OBJECT_OFFSET) == TRUE)
 565:FrameMgr.c    ****             {
 566:FrameMgr.c    ****                 /* the object is valid...convert the color from bit position to value...remember, 
 567:FrameMgr.c    ****                 each bit in the "color" byte corresponds to a color */
 568:FrameMgr.c    ****                 k=0;
 569:FrameMgr.c    ****                 color = *(pTableData + COLOR_OFFSET);
 570:FrameMgr.c    ****                 if (color == 128) k=0;
 571:FrameMgr.c    ****                 else if (color == 64) k=1;
 572:FrameMgr.c    ****                 else if (color == 32) k=2;
 573:FrameMgr.c    ****                 else if (color == 16) k=3;
 574:FrameMgr.c    ****                 else if (color == 8)  k=4;
 575:FrameMgr.c    ****                 else if (color == 4)  k=5;
 576:FrameMgr.c    ****                 else if (color == 2)  k=6;
 577:FrameMgr.c    ****                 else if (color == 1)  k=7;
 578:FrameMgr.c    ****                 
 579:FrameMgr.c    ****                 tmpUpperLeftX = *(pTableData + X_UPPER_LEFT_OFFSET);	    /* get the upper left X */
 580:FrameMgr.c    ****                 tmpUpperLeftY = *(pTableData + Y_UPPER_LEFT_OFFSET);		/* get the upper left Y */		
 581:FrameMgr.c    ****                 tmpLowerRightX = *(pTableData + X_LOWER_RIGHT_OFFSET);		/* get the lower right X */
 582:FrameMgr.c    ****                 tmpLowerRightY = *(pTableData + Y_LOWER_RIGHT_OFFSET);		/* get the lower right Y */
 583:FrameMgr.c    ****                 
 584:FrameMgr.c    ****                 UIMgr_writeTxFifo(k);				  	/* send the color first */
 585:FrameMgr.c    ****                 UIMgr_writeTxFifo(tmpUpperLeftX);
 586:FrameMgr.c    ****                 UIMgr_writeTxFifo(tmpUpperLeftY);
 587:FrameMgr.c    ****                 UIMgr_writeTxFifo(tmpLowerRightX);
 588:FrameMgr.c    ****                 UIMgr_writeTxFifo(tmpLowerRightY);			
 589:FrameMgr.c    ****             }
 590:FrameMgr.c    **** 
 591:FrameMgr.c    ****             /* move our pointer up to the beginning of the next object */
 592:FrameMgr.c    ****             pTableData += SIZE_OF_TRACKED_OBJECT;
 593:FrameMgr.c    ****         }
 594:FrameMgr.c    **** 		
 595:FrameMgr.c    **** 		/* all done...send the end of tracking packets char */
 596:FrameMgr.c    **** 		UIMgr_writeTxFifo(0xFF);
 597:FrameMgr.c    **** 	}	
 598:FrameMgr.c    **** #endif	
 599:FrameMgr.c    **** 
 600:FrameMgr.c    ****     /* the tracked object table will be cleared out right before we start
 601:FrameMgr.c    ****     to wait for VSYNC to indicate a new frame...so it doesn't need to be
 602:FrameMgr.c    ****     done now */
 603:FrameMgr.c    ****     
 604:FrameMgr.c    **** 	/* schedule the next action to acquire a new frame */	
 605:FrameMgr.c    **** 	PUBLISH_EVENT(EV_PROCESS_FRAME_COMPLETE);
 606:FrameMgr.c    **** }
 607:FrameMgr.c    **** 
 608:FrameMgr.c    **** /***********************************************************
 609:FrameMgr.c    **** 	Function Name: FrameMgr_findConnectedness
GAS LISTING C:\Users\Joe\AppData\Local\Temp\ccGFCZfB.s 			page 18


 610:FrameMgr.c    **** 	Function Description: This function is responsible for
 611:FrameMgr.c    **** 	finding the connectedness between two particular run-
 612:FrameMgr.c    **** 	length encoded lines of pixel data.  It updates the
 613:FrameMgr.c    **** 	trackingTable as needed.
 614:FrameMgr.c    **** 	Inputs:  none
 615:FrameMgr.c    **** 	Outputs: none
 616:FrameMgr.c    **** ***********************************************************/	
 617:FrameMgr.c    **** static void FrameMgr_findConnectedness(void)
 618:FrameMgr.c    **** {
 619:FrameMgr.c    **** 	trackedColor_t currColor;
 620:FrameMgr.c    **** 	unsigned char *pCurrLineColorInfo = currentLineBuffer;
 621:FrameMgr.c    **** 	unsigned char *pTrackedObjectData;
 622:FrameMgr.c    **** 	register unsigned char currPixelRunStart=0;
 623:FrameMgr.c    **** 	register unsigned char currPixelRunFinish=0; 
 624:FrameMgr.c    **** 	register unsigned char lastLineXStart=0;
 625:FrameMgr.c    **** 	register unsigned char lastLineXFinish=0;  
 626:FrameMgr.c    **** 	register unsigned char runLength=1;
 627:FrameMgr.c    **** 	unsigned char i;
 628:FrameMgr.c    **** 	bool_t colorConnected;	
 629:FrameMgr.c    **** 	
 630:FrameMgr.c    **** 	do
 631:FrameMgr.c    **** 	{
 632:FrameMgr.c    **** 		/* grab both the current color and the number of pixels
 633:FrameMgr.c    **** 		in the run...remember, pixels start at 1, not 0! */
 634:FrameMgr.c    **** 		colorConnected = FALSE;
 635:FrameMgr.c    **** 		currColor = *pCurrLineColorInfo++;
 636:FrameMgr.c    **** 		currPixelRunStart += runLength;
 637:FrameMgr.c    **** 		runLength = *pCurrLineColorInfo++;
 638:FrameMgr.c    **** 		currPixelRunFinish += runLength;
 639:FrameMgr.c    ****       
 640:FrameMgr.c    ****         /* make sure that the run-length is at least as wide as
 641:FrameMgr.c    ****         the minimum horizontal tracking width, and we care about the color */ 
 642:FrameMgr.c    ****         
 643:FrameMgr.c    **** 		if ( (currColor != notTracked) && (runLength > MIN_OBJECT_TRACKING_WIDTH) )
 644:FrameMgr.c    **** 		{			
 645:FrameMgr.c    ****             /* this run contains a color we care about, so 
 646:FrameMgr.c    **** 			either it will begin a new tracked object, or it
 647:FrameMgr.c    **** 			is connected to a currently tracked object...
 648:FrameMgr.c    **** 			compare it with each object in the tracking
 649:FrameMgr.c    **** 			table...we can't just look at the numTrackedObjects because
 650:FrameMgr.c    ****             it is entirely possible that the first couple of objects could
 651:FrameMgr.c    ****             be invalid...
 652:FrameMgr.c    **** 
 653:FrameMgr.c    ****             NOTE: Instead of accessing each element in the trackedObjectTable
 654:FrameMgr.c    ****             through the 'i' index, and then accessing the fields in each structure,
 655:FrameMgr.c    ****             a pointer to each entry is established each time through the loop, followed
 656:FrameMgr.c    ****             by accessing the elements through specified offsets.  GCC seems to be
 657:FrameMgr.c    ****             able to optimize this code much better than simply accessing the elements
 658:FrameMgr.c    ****             of each structure in the array the more normal way...*/
 659:FrameMgr.c    ****             
 660:FrameMgr.c    ****             pTrackedObjectData = (unsigned char *)pCurrentTrackedObjectTable;
 661:FrameMgr.c    **** 			for (i=0; i<MAX_TRACKED_OBJECTS; i++)
 662:FrameMgr.c    **** 			{
 663:FrameMgr.c    **** 				if ( (currColor == *(pTrackedObjectData + COLOR_OFFSET)) && 
 664:FrameMgr.c    ****                      (*(pTrackedObjectData + VALID_OBJECT_OFFSET) == TRUE) &&
 665:FrameMgr.c    ****                      (*(pTrackedObjectData + Y_LOWER_RIGHT_OFFSET) == trackedLineCount - 1) )
 359               		.loc 1 665 0
GAS LISTING C:\Users\Joe\AppData\Local\Temp\ccGFCZfB.s 			page 19


 360 0186 5091 0000 		lds r21,trackedLineCount
 361 018a 052F      		mov r16,r21
 362 018c 10E0      		ldi r17,0
 363 018e B801      		movw r22,r16
 364 0190 6150      		subi r22,1
 365 0192 7109      		sbc r23,__zero_reg__
 366 0194 B090 0000 		lds r11,numCurrTrackedObjects
 367 0198 A0E0      		ldi r26,lo8(currentLineBuffer)
 368 019a B0E0      		ldi r27,hi8(currentLineBuffer)
 369 019c 21E0      		ldi r18,lo8(1)
 370 019e 30E0      		ldi r19,0
 371 01a0 40E0      		ldi r20,0
 666:FrameMgr.c    **** 				{
 667:FrameMgr.c    **** 					/* found a color match and the object is valid...check to see if there is
 668:FrameMgr.c    **** 					connectedness */
 669:FrameMgr.c    **** 					lastLineXStart = *(pTrackedObjectData + LAST_LINE_X_START_OFFSET);
 670:FrameMgr.c    **** 					lastLineXFinish = *(pTrackedObjectData + LAST_LINE_X_FINISH_OFFSET);
 671:FrameMgr.c    **** 					
 672:FrameMgr.c    **** 					/* Check for the 5 following types of line connectedness:
 673:FrameMgr.c    **** 					---------------------
 674:FrameMgr.c    **** 					|                   |
 675:FrameMgr.c    **** 					---------------------
 676:FrameMgr.c    **** 					         -------------------------
 677:FrameMgr.c    **** 							 |                       |
 678:FrameMgr.c    **** 							 -------------------------  */
 679:FrameMgr.c    **** 					if ( (	(currPixelRunStart >= lastLineXStart) &&
 680:FrameMgr.c    **** 							(currPixelRunStart <= lastLineXFinish) )  ||
 681:FrameMgr.c    **** 							
 682:FrameMgr.c    **** 					/*               ---------------------
 683:FrameMgr.c    **** 					                 |                   |
 684:FrameMgr.c    **** 									 ---------------------
 685:FrameMgr.c    **** 						-------------------
 686:FrameMgr.c    **** 						|                 |
 687:FrameMgr.c    **** 						-------------------  
 688:FrameMgr.c    **** 						                   OR
 689:FrameMgr.c    **** 						     ------------------------------
 690:FrameMgr.c    **** 							 |                            |
 691:FrameMgr.c    **** 							 ------------------------------
 692:FrameMgr.c    **** 							              ---------
 693:FrameMgr.c    **** 										  |       |
 694:FrameMgr.c    **** 										  ---------  */
 695:FrameMgr.c    **** 						 (	(currPixelRunFinish >= lastLineXStart) && 
 696:FrameMgr.c    **** 							(currPixelRunFinish <= lastLineXFinish) ) ||
 697:FrameMgr.c    **** 							
 698:FrameMgr.c    **** 							
 699:FrameMgr.c    **** 					/*     -------------------------------
 700:FrameMgr.c    **** 					       |                             |
 701:FrameMgr.c    **** 						   -------------------------------
 702:FrameMgr.c    **** 						   -------------------------------
 703:FrameMgr.c    **** 						   |                             |
 704:FrameMgr.c    **** 						   -------------------------------
 705:FrameMgr.c    **** 						                  OR
 706:FrameMgr.c    **** 								     -------------
 707:FrameMgr.c    **** 									 |           |
 708:FrameMgr.c    **** 									 -------------
 709:FrameMgr.c    **** 							-------------------------------
 710:FrameMgr.c    **** 							|                             |
GAS LISTING C:\Users\Joe\AppData\Local\Temp\ccGFCZfB.s 			page 20


 711:FrameMgr.c    **** 							-------------------------------   */
 712:FrameMgr.c    **** 						 (  (currPixelRunStart <= lastLineXStart) &&
 713:FrameMgr.c    **** 							(currPixelRunFinish >= lastLineXFinish) ) )
 714:FrameMgr.c    **** 					{
 715:FrameMgr.c    **** 						/* THERE IS CONNECTEDNESS...update the lastLineXStart and lastLineXFinish
 716:FrameMgr.c    **** 						data pointed to by pTrackedObjectData */
 717:FrameMgr.c    **** 						*(pTrackedObjectData + LAST_LINE_X_START_OFFSET) = currPixelRunStart;
 718:FrameMgr.c    **** 						*(pTrackedObjectData + LAST_LINE_X_FINISH_OFFSET) = currPixelRunFinish;
 719:FrameMgr.c    **** 						
 720:FrameMgr.c    **** 						/* check if the bounding box needs to be updated */
 721:FrameMgr.c    **** 						if (*(pTrackedObjectData + X_UPPER_LEFT_OFFSET) > currPixelRunStart)
 722:FrameMgr.c    **** 						{
 723:FrameMgr.c    **** 							/* need to update the bounding box for the upper left point to 
 724:FrameMgr.c    **** 							enclose this new left-most point...we never have to update the
 725:FrameMgr.c    **** 							upper left Y point, since each scan line we process moves from
 726:FrameMgr.c    **** 							top to bottom */
 727:FrameMgr.c    **** 							*(pTrackedObjectData + X_UPPER_LEFT_OFFSET) = currPixelRunStart;
 728:FrameMgr.c    **** 						}
 729:FrameMgr.c    **** 
 730:FrameMgr.c    **** 						if ( *(pTrackedObjectData + X_LOWER_RIGHT_OFFSET) < currPixelRunFinish)
 731:FrameMgr.c    **** 						{
 732:FrameMgr.c    **** 							/* need to update the bounding box for the lower right X point to
 733:FrameMgr.c    **** 							enclose this new right-most point */
 734:FrameMgr.c    **** 							*(pTrackedObjectData + X_LOWER_RIGHT_OFFSET) = currPixelRunFinish;
 735:FrameMgr.c    **** 						}
 736:FrameMgr.c    **** 						
 737:FrameMgr.c    **** 						/* the lower right 'y' point always gets updated when connectedness is found */
 738:FrameMgr.c    **** 						*(pTrackedObjectData + Y_LOWER_RIGHT_OFFSET) = trackedLineCount;
 739:FrameMgr.c    **** 						
 740:FrameMgr.c    **** 						/* set a flag indicating that that color run is part of another
 741:FrameMgr.c    **** 						object and thus doesn't need to be added as a new entry into the
 742:FrameMgr.c    **** 						tracking table */
 743:FrameMgr.c    **** 						colorConnected = TRUE;
 744:FrameMgr.c    **** 						break;
 745:FrameMgr.c    **** 					}
 746:FrameMgr.c    **** 				}
 747:FrameMgr.c    ****                 
 748:FrameMgr.c    ****                 /* go to the next object */
 749:FrameMgr.c    ****                 pTrackedObjectData += SIZE_OF_TRACKED_OBJECT;
 750:FrameMgr.c    **** 			}
 751:FrameMgr.c    **** 			
 752:FrameMgr.c    **** 			if (colorConnected == FALSE)
 753:FrameMgr.c    **** 			{
 754:FrameMgr.c    **** 				/* a new entry needs to be made to the tracking table, since we have
 755:FrameMgr.c    **** 				a run-length with a color, and it isn't connected to anything...but we
 756:FrameMgr.c    **** 				can only do this if there is space left in the trackedObject table */
 757:FrameMgr.c    **** 				if (numCurrTrackedObjects < MAX_TRACKED_OBJECTS)
 758:FrameMgr.c    **** 				{                
 759:FrameMgr.c    ****                     /* space is available...add the object...but first we need to find an
 760:FrameMgr.c    ****                     invalid object in the object tracking table */
 761:FrameMgr.c    ****                     pTrackedObjectData = (unsigned char *)pCurrentTrackedObjectTable;
 762:FrameMgr.c    ****                     for (i=0; i<MAX_TRACKED_OBJECTS; i++)
 763:FrameMgr.c    ****                     {
 764:FrameMgr.c    ****                         if ( *(pTrackedObjectData + VALID_OBJECT_OFFSET) == FALSE)  break;
 372               		.loc 1 764 0
 373 01a2 0F2E      		mov __tmp_reg__,r31
 374 01a4 F0E0      		ldi r31,lo8(trackedObjectTable)
GAS LISTING C:\Users\Joe\AppData\Local\Temp\ccGFCZfB.s 			page 21


 375 01a6 EF2E      		mov r14,r31
 376 01a8 F0E0      		ldi r31,hi8(trackedObjectTable)
 377 01aa FF2E      		mov r15,r31
 378 01ac F02D      		mov r31,__tmp_reg__
 765:FrameMgr.c    ****                         
 766:FrameMgr.c    ****                         /* if we haven't broken above, then the object must have been valid...
 767:FrameMgr.c    ****                         go ahead and move the pointer to the next object to check it */
 768:FrameMgr.c    ****                         pTrackedObjectData += SIZE_OF_TRACKED_OBJECT;
 769:FrameMgr.c    ****                     }
 770:FrameMgr.c    ****                     
 771:FrameMgr.c    **** 					
 772:FrameMgr.c    **** 					/* now that we have a pointer to the tracked object to be updated, update all
 773:FrameMgr.c    **** 					the fields */
 774:FrameMgr.c    **** 					*(pTrackedObjectData + COLOR_OFFSET)                = currColor;			/* color */
 775:FrameMgr.c    **** 					*(pTrackedObjectData + LAST_LINE_X_START_OFFSET)    = currPixelRunStart; 	/* lastLineXStart */
 776:FrameMgr.c    **** 					*(pTrackedObjectData + LAST_LINE_X_FINISH_OFFSET)   = currPixelRunFinish;	/* lastLineXFinish *
 777:FrameMgr.c    **** 					*(pTrackedObjectData + X_UPPER_LEFT_OFFSET)         = currPixelRunStart;	/* x_upperLeft */
 778:FrameMgr.c    **** 					*(pTrackedObjectData + Y_UPPER_LEFT_OFFSET)         = trackedLineCount;	/* y_upperLeft */
 779:FrameMgr.c    **** 					*(pTrackedObjectData + X_LOWER_RIGHT_OFFSET)        = currPixelRunFinish;	/* x_lowerRight */
 780:FrameMgr.c    **** 					*(pTrackedObjectData + Y_LOWER_RIGHT_OFFSET)        = trackedLineCount;	/* y_lowerRight */
 781:FrameMgr.c    ****                     *(pTrackedObjectData + VALID_OBJECT_OFFSET)         = TRUE;                /* o
 379               		.loc 1 781 0
 380 01ae AA24      		clr r10
 381 01b0 A394      		inc r10
 382               	.L46:
 383               	.LVL17:
 635:FrameMgr.c    **** 		currPixelRunStart += runLength;
 384               		.loc 1 635 0
 385 01b2 8C91      		ld r24,X
 386               	.LVL18:
 636:FrameMgr.c    **** 		runLength = *pCurrLineColorInfo++;
 387               		.loc 1 636 0
 388 01b4 420F      		add r20,r18
 389               	.LVL19:
 637:FrameMgr.c    **** 		currPixelRunFinish += runLength;
 390               		.loc 1 637 0
 391 01b6 1196      		adiw r26,1
 392 01b8 2C91      		ld r18,X
 393 01ba 1197      		sbiw r26,1
 394               	.LVL20:
 638:FrameMgr.c    ****       
 395               		.loc 1 638 0
 396 01bc 320F      		add r19,r18
 397               	.LVL21:
 643:FrameMgr.c    **** 		{			
 398               		.loc 1 643 0
 399 01be 8823      		tst r24
 400 01c0 01F4      		brne .+2
 401 01c2 00C0      		rjmp .L34
 402 01c4 2430      		cpi r18,lo8(4)
 403 01c6 00F4      		brsh .+2
 404 01c8 00C0      		rjmp .L34
 405 01ca E0E0      		ldi r30,lo8(trackedObjectTable)
 406 01cc F0E0      		ldi r31,hi8(trackedObjectTable)
 407               	.L42:
 408               	.LVL22:
 663:FrameMgr.c    ****                      (*(pTrackedObjectData + VALID_OBJECT_OFFSET) == TRUE) &&
GAS LISTING C:\Users\Joe\AppData\Local\Temp\ccGFCZfB.s 			page 22


 409               		.loc 1 663 0
 410 01ce 9081      		ld r25,Z
 411 01d0 8913      		cpse r24,r25
 412 01d2 00C0      		rjmp .L35
 413 01d4 9781      		ldd r25,Z+7
 414 01d6 9130      		cpi r25,lo8(1)
 415 01d8 01F4      		brne .L35
 664:FrameMgr.c    ****                      (*(pTrackedObjectData + Y_LOWER_RIGHT_OFFSET) == trackedLineCount - 1) )
 416               		.loc 1 664 0
 417 01da C680      		ldd r12,Z+6
 418 01dc D12C      		mov r13,__zero_reg__
 419 01de C616      		cp r12,r22
 420 01e0 D706      		cpc r13,r23
 421 01e2 01F4      		brne .L35
 669:FrameMgr.c    **** 					lastLineXFinish = *(pTrackedObjectData + LAST_LINE_X_FINISH_OFFSET);
 422               		.loc 1 669 0
 423 01e4 9181      		ldd r25,Z+1
 424               	.LVL23:
 670:FrameMgr.c    **** 					
 425               		.loc 1 670 0
 426 01e6 D280      		ldd r13,Z+2
 427               	.LVL24:
 679:FrameMgr.c    **** 							(currPixelRunStart <= lastLineXFinish) )  ||
 428               		.loc 1 679 0
 429 01e8 4917      		cp r20,r25
 430 01ea 00F4      		brsh .+2
 431 01ec 00C0      		rjmp .L36
 432 01ee D416      		cp r13,r20
 433 01f0 00F4      		brsh .L37
 680:FrameMgr.c    **** 							
 434               		.loc 1 680 0
 435 01f2 3917      		cp r19,r25
 436 01f4 00F0      		brlo .L38
 695:FrameMgr.c    **** 							(currPixelRunFinish <= lastLineXFinish) ) ||
 437               		.loc 1 695 0
 438 01f6 D316      		cp r13,r19
 439 01f8 00F4      		brsh .+2
 440 01fa 00C0      		rjmp .L59
 441 01fc 00C0      		rjmp .L37
 442               	.L38:
 696:FrameMgr.c    **** 							
 443               		.loc 1 696 0
 444 01fe 9417      		cp r25,r20
 445 0200 00F0      		brlo .L35
 446               	.L51:
 712:FrameMgr.c    **** 							(currPixelRunFinish >= lastLineXFinish) ) )
 447               		.loc 1 712 0
 448 0202 3D15      		cp r19,r13
 449 0204 00F0      		brlo .L35
 450               	.L37:
 717:FrameMgr.c    **** 						*(pTrackedObjectData + LAST_LINE_X_FINISH_OFFSET) = currPixelRunFinish;
 451               		.loc 1 717 0
 452 0206 4183      		std Z+1,r20
 718:FrameMgr.c    **** 						
 453               		.loc 1 718 0
 454 0208 3283      		std Z+2,r19
 721:FrameMgr.c    **** 						{
GAS LISTING C:\Users\Joe\AppData\Local\Temp\ccGFCZfB.s 			page 23


 455               		.loc 1 721 0
 456 020a 8381      		ldd r24,Z+3
 457               	.LVL25:
 458 020c 4817      		cp r20,r24
 459 020e 00F4      		brsh .L40
 727:FrameMgr.c    **** 						}
 460               		.loc 1 727 0
 461 0210 4383      		std Z+3,r20
 462               	.L40:
 730:FrameMgr.c    **** 						{
 463               		.loc 1 730 0
 464 0212 8581      		ldd r24,Z+5
 465 0214 8317      		cp r24,r19
 466 0216 00F4      		brsh .L41
 734:FrameMgr.c    **** 						}
 467               		.loc 1 734 0
 468 0218 3583      		std Z+5,r19
 469               	.L41:
 738:FrameMgr.c    **** 						
 470               		.loc 1 738 0
 471 021a 5683      		std Z+6,r21
 472               	.LVL26:
 473 021c 00C0      		rjmp .L34
 474               	.LVL27:
 475               	.L35:
 749:FrameMgr.c    **** 			}
 476               		.loc 1 749 0
 477 021e 3896      		adiw r30,8
 478               	.LVL28:
 661:FrameMgr.c    **** 			{
 479               		.loc 1 661 0
 480 0220 90E0      		ldi r25,hi8(trackedObjectTable+64)
 481 0222 E030      		cpi r30,lo8(trackedObjectTable+64)
 482 0224 F907      		cpc r31,r25
 483 0226 01F4      		brne .L42
 484 0228 00C0      		rjmp .L60
 485               	.L52:
 486               	.LVL29:
 764:FrameMgr.c    ****                         
 487               		.loc 1 764 0
 488 022a F701      		movw r30,r14
 489 022c 9781      		ldd r25,Z+7
 490 022e 9923      		tst r25
 491 0230 01F0      		breq .L53
 768:FrameMgr.c    ****                     }
 492               		.loc 1 768 0
 493 0232 E0E0      		ldi r30,lo8(trackedObjectTable+8)
 494 0234 F0E0      		ldi r31,hi8(trackedObjectTable+8)
 495               	.LVL30:
 496               	.L45:
 764:FrameMgr.c    ****                         
 497               		.loc 1 764 0
 498 0236 9781      		ldd r25,Z+7
 499 0238 9923      		tst r25
 500 023a 01F0      		breq .L44
 768:FrameMgr.c    ****                     }
 501               		.loc 1 768 0
GAS LISTING C:\Users\Joe\AppData\Local\Temp\ccGFCZfB.s 			page 24


 502 023c 3896      		adiw r30,8
 503               	.LVL31:
 762:FrameMgr.c    ****                     {
 504               		.loc 1 762 0
 505 023e 90E0      		ldi r25,hi8(trackedObjectTable+64)
 506 0240 E030      		cpi r30,lo8(trackedObjectTable+64)
 507 0242 F907      		cpc r31,r25
 508 0244 01F4      		brne .L45
 509 0246 00C0      		rjmp .L44
 510               	.LVL32:
 511               	.L53:
 764:FrameMgr.c    ****                         
 512               		.loc 1 764 0
 513 0248 E0E0      		ldi r30,lo8(trackedObjectTable)
 514 024a F0E0      		ldi r31,hi8(trackedObjectTable)
 515               	.LVL33:
 516               	.L44:
 774:FrameMgr.c    **** 					*(pTrackedObjectData + LAST_LINE_X_START_OFFSET)    = currPixelRunStart; 	/* lastLineXStart */
 517               		.loc 1 774 0
 518 024c 8083      		st Z,r24
 775:FrameMgr.c    **** 					*(pTrackedObjectData + LAST_LINE_X_FINISH_OFFSET)   = currPixelRunFinish;	/* lastLineXFinish *
 519               		.loc 1 775 0
 520 024e 4183      		std Z+1,r20
 776:FrameMgr.c    **** 					*(pTrackedObjectData + X_UPPER_LEFT_OFFSET)         = currPixelRunStart;	/* x_upperLeft */
 521               		.loc 1 776 0
 522 0250 3283      		std Z+2,r19
 777:FrameMgr.c    **** 					*(pTrackedObjectData + Y_UPPER_LEFT_OFFSET)         = trackedLineCount;	/* y_upperLeft */
 523               		.loc 1 777 0
 524 0252 4383      		std Z+3,r20
 778:FrameMgr.c    **** 					*(pTrackedObjectData + X_LOWER_RIGHT_OFFSET)        = currPixelRunFinish;	/* x_lowerRight */
 525               		.loc 1 778 0
 526 0254 5483      		std Z+4,r21
 779:FrameMgr.c    **** 					*(pTrackedObjectData + Y_LOWER_RIGHT_OFFSET)        = trackedLineCount;	/* y_lowerRight */
 527               		.loc 1 779 0
 528 0256 3583      		std Z+5,r19
 780:FrameMgr.c    ****                     *(pTrackedObjectData + VALID_OBJECT_OFFSET)         = TRUE;                /* o
 529               		.loc 1 780 0
 530 0258 5683      		std Z+6,r21
 531               		.loc 1 781 0
 532 025a A782      		std Z+7,r10
 782:FrameMgr.c    **** 						
 783:FrameMgr.c    **** 					numCurrTrackedObjects++;
 533               		.loc 1 783 0
 534 025c B394      		inc r11
 535               	.LVL34:
 536               	.L34:
 537 025e 1296      		adiw r26,2
 538               	.LVL35:
 784:FrameMgr.c    **** 				}
 785:FrameMgr.c    **** 			}
 786:FrameMgr.c    ****             
 787:FrameMgr.c    ****             /* move the pointer to the beginning of the next tracked object */
 788:FrameMgr.c    ****             pTrackedObjectData += SIZE_OF_TRACKED_OBJECT;
 789:FrameMgr.c    **** 		}
 790:FrameMgr.c    **** 	} while(currPixelRunFinish < ACTUAL_NUM_PIXELS_IN_A_LINE);
 539               		.loc 1 790 0
 540 0260 303B      		cpi r19,lo8(-80)
GAS LISTING C:\Users\Joe\AppData\Local\Temp\ccGFCZfB.s 			page 25


 541 0262 00F4      		brsh .+2
 542 0264 00C0      		rjmp .L46
 543 0266 B092 0000 		sts numCurrTrackedObjects,r11
 544               	.LVL36:
 545               	.LBE5:
 546               	.LBE4:
 460:FrameMgr.c    ****         {
 547               		.loc 1 460 0
 548 026a 852F      		mov r24,r21
 549 026c 8770      		andi r24,lo8(7)
 550 026e 8730      		cpi r24,lo8(7)
 551 0270 01F4      		brne .L47
 552 0272 E0E0      		ldi r30,lo8(trackedObjectTable)
 553 0274 F0E0      		ldi r31,hi8(trackedObjectTable)
 554               	.LVL37:
 555               	.L49:
 464:FrameMgr.c    ****                 {
 556               		.loc 1 464 0
 557 0276 8781      		ldd r24,Z+7
 558 0278 8130      		cpi r24,lo8(1)
 559 027a 01F4      		brne .L48
 468:FrameMgr.c    ****                           *(pTrackedObjectData + Y_UPPER_LEFT_OFFSET)) < MIN_OBJECT_TRACKING_HEIGHT
 560               		.loc 1 468 0
 561 027c 8681      		ldd r24,Z+6
 562 027e 90E0      		ldi r25,0
 563 0280 2481      		ldd r18,Z+4
 564 0282 BC01      		movw r22,r24
 565 0284 621B      		sub r22,r18
 566 0286 7109      		sbc r23,__zero_reg__
 567 0288 6330      		cpi r22,3
 568 028a 7105      		cpc r23,__zero_reg__
 569 028c 04F4      		brge .L48
 474:FrameMgr.c    ****                         {
 570               		.loc 1 474 0
 571 028e 9801      		movw r18,r16
 572 0290 281B      		sub r18,r24
 573 0292 390B      		sbc r19,r25
 574 0294 2330      		cpi r18,3
 575 0296 3105      		cpc r19,__zero_reg__
 576 0298 04F0      		brlt .L48
 477:FrameMgr.c    ****                             numCurrTrackedObjects--;
 577               		.loc 1 477 0
 578 029a 1782      		std Z+7,__zero_reg__
 478:FrameMgr.c    ****                         }
 579               		.loc 1 478 0
 580 029c BA94      		dec r11
 581               	.L48:
 482:FrameMgr.c    ****             }
 582               		.loc 1 482 0 discriminator 2
 583 029e 3896      		adiw r30,8
 584               	.LVL38:
 462:FrameMgr.c    ****             {
 585               		.loc 1 462 0 discriminator 2
 586 02a0 30E0      		ldi r19,hi8(trackedObjectTable+64)
 587 02a2 E030      		cpi r30,lo8(trackedObjectTable+64)
 588 02a4 F307      		cpc r31,r19
 589 02a6 01F4      		brne .L49
GAS LISTING C:\Users\Joe\AppData\Local\Temp\ccGFCZfB.s 			page 26


 590 02a8 B092 0000 		sts numCurrTrackedObjects,r11
 591               	.LVL39:
 592               	.L47:
 486:FrameMgr.c    **** 		if (trackedLineCount == ACTUAL_NUM_LINES_IN_A_FRAME)
 593               		.loc 1 486 0
 594 02ac 5F5F      		subi r21,lo8(-(1))
 595 02ae 5093 0000 		sts trackedLineCount,r21
 487:FrameMgr.c    **** 		{
 596               		.loc 1 487 0
 597 02b2 5039      		cpi r21,lo8(-112)
 598 02b4 01F4      		brne .L50
 491:FrameMgr.c    **** 			/* disable the PCLK counting overflow interrupt */
 599               		.loc 1 491 0
 600 02b6 80E2      		ldi r24,lo8(32)
 601 02b8 00D0      		rcall Exec_writeEventFifo
 602               	.LVL40:
 493:FrameMgr.c    **** 			trackedLineCount = 0;
 603               		.loc 1 493 0
 604 02ba 89B7      		in r24,0x39
 605 02bc 8B7F      		andi r24,lo8(-5)
 606 02be 89BF      		out 0x39,r24
 494:FrameMgr.c    **** 		}
 607               		.loc 1 494 0
 608 02c0 1092 0000 		sts trackedLineCount,__zero_reg__
 609 02c4 00C0      		rjmp .L29
 610               	.L50:
 498:FrameMgr.c    **** 		}
 611               		.loc 1 498 0
 612 02c6 8091 0000 		lds r24,fastEventBitmask
 613 02ca 8260      		ori r24,lo8(2)
 614 02cc 8093 0000 		sts fastEventBitmask,r24
 506:FrameMgr.c    **** 
 615               		.loc 1 506 0
 616 02d0 00C0      		rjmp .L29
 617               	.LVL41:
 618               	.L36:
 619               	.LBB7:
 620               	.LBB6:
 680:FrameMgr.c    **** 							
 621               		.loc 1 680 0
 622 02d2 3917      		cp r19,r25
 623 02d4 00F0      		brlo .+2
 624 02d6 00C0      		rjmp .L37
 625 02d8 00C0      		rjmp .L51
 626               	.L59:
 696:FrameMgr.c    **** 							
 627               		.loc 1 696 0
 628 02da 9417      		cp r25,r20
 629 02dc 00F4      		brsh .+2
 630 02de 00C0      		rjmp .L35
 631 02e0 00C0      		rjmp .L37
 632               	.LVL42:
 633               	.L60:
 757:FrameMgr.c    **** 				{                
 634               		.loc 1 757 0
 635 02e2 97E0      		ldi r25,lo8(7)
 636 02e4 9B15      		cp r25,r11
GAS LISTING C:\Users\Joe\AppData\Local\Temp\ccGFCZfB.s 			page 27


 637 02e6 00F0      		brlo .+2
 638 02e8 00C0      		rjmp .L52
 639 02ea 00C0      		rjmp .L34
 640               	.LVL43:
 641               	.L29:
 642               	/* epilogue start */
 643               	.LBE6:
 644               	.LBE7:
 506:FrameMgr.c    **** 
 645               		.loc 1 506 0
 646 02ec 0F90      		pop __tmp_reg__
 647 02ee DF91      		pop r29
 648 02f0 CF91      		pop r28
 649 02f2 1F91      		pop r17
 650 02f4 0F91      		pop r16
 651 02f6 FF90      		pop r15
 652 02f8 EF90      		pop r14
 653 02fa DF90      		pop r13
 654 02fc CF90      		pop r12
 655 02fe BF90      		pop r11
 656 0300 AF90      		pop r10
 657 0302 0895      		ret
 658               		.cfi_endproc
 659               	.LFE8:
 660               		.size	FrameMgr_processLine, .-FrameMgr_processLine
 661               	.global	FrameMgr_processFrame
 662               		.type	FrameMgr_processFrame, @function
 663               	FrameMgr_processFrame:
 664               	.LFB9:
 517:FrameMgr.c    **** 	unsigned char i,k,color;
 665               		.loc 1 517 0
 666               		.cfi_startproc
 667 0304 6F92      		push r6
 668               	.LCFI12:
 669               		.cfi_def_cfa_offset 3
 670               		.cfi_offset 6, -2
 671 0306 7F92      		push r7
 672               	.LCFI13:
 673               		.cfi_def_cfa_offset 4
 674               		.cfi_offset 7, -3
 675 0308 8F92      		push r8
 676               	.LCFI14:
 677               		.cfi_def_cfa_offset 5
 678               		.cfi_offset 8, -4
 679 030a 9F92      		push r9
 680               	.LCFI15:
 681               		.cfi_def_cfa_offset 6
 682               		.cfi_offset 9, -5
 683 030c AF92      		push r10
 684               	.LCFI16:
 685               		.cfi_def_cfa_offset 7
 686               		.cfi_offset 10, -6
 687 030e BF92      		push r11
 688               	.LCFI17:
 689               		.cfi_def_cfa_offset 8
 690               		.cfi_offset 11, -7
 691 0310 CF92      		push r12
GAS LISTING C:\Users\Joe\AppData\Local\Temp\ccGFCZfB.s 			page 28


 692               	.LCFI18:
 693               		.cfi_def_cfa_offset 9
 694               		.cfi_offset 12, -8
 695 0312 DF92      		push r13
 696               	.LCFI19:
 697               		.cfi_def_cfa_offset 10
 698               		.cfi_offset 13, -9
 699 0314 EF92      		push r14
 700               	.LCFI20:
 701               		.cfi_def_cfa_offset 11
 702               		.cfi_offset 14, -10
 703 0316 FF92      		push r15
 704               	.LCFI21:
 705               		.cfi_def_cfa_offset 12
 706               		.cfi_offset 15, -11
 707 0318 0F93      		push r16
 708               	.LCFI22:
 709               		.cfi_def_cfa_offset 13
 710               		.cfi_offset 16, -12
 711 031a 1F93      		push r17
 712               	.LCFI23:
 713               		.cfi_def_cfa_offset 14
 714               		.cfi_offset 17, -13
 715 031c CF93      		push r28
 716               	.LCFI24:
 717               		.cfi_def_cfa_offset 15
 718               		.cfi_offset 28, -14
 719 031e DF93      		push r29
 720               	.LCFI25:
 721               		.cfi_def_cfa_offset 16
 722               		.cfi_offset 29, -15
 723               	/* prologue: function */
 724               	/* frame size = 0 */
 725               	/* stack size = 14 */
 726               	.L__stack_usage = 14
 727               	.LVL44:
 553:FrameMgr.c    **** 	{		
 728               		.loc 1 553 0
 729 0320 8091 0000 		lds r24,numCurrTrackedObjects
 730 0324 8823      		tst r24
 731 0326 01F4      		brne .+2
 732 0328 00C0      		rjmp .L62
 555:FrameMgr.c    ****         /* reset the pointer */
 733               		.loc 1 555 0
 734 032a 8AE0      		ldi r24,lo8(10)
 735 032c 00D0      		rcall UIMgr_writeTxFifo
 736               	.LVL45:
 559:FrameMgr.c    **** 		for (i=0; i<MAX_TRACKED_OBJECTS; i++)
 737               		.loc 1 559 0
 738 032e 8091 0000 		lds r24,numCurrTrackedObjects
 739 0332 00D0      		rcall UIMgr_writeTxFifo
 740               	.LVL46:
 557:FrameMgr.c    ****         
 741               		.loc 1 557 0
 742 0334 C0E0      		ldi r28,lo8(trackedObjectTable)
 743 0336 D0E0      		ldi r29,hi8(trackedObjectTable)
 570:FrameMgr.c    ****                 else if (color == 64) k=1;
GAS LISTING C:\Users\Joe\AppData\Local\Temp\ccGFCZfB.s 			page 29


 744               		.loc 1 570 0
 745 0338 D12C      		mov r13,__zero_reg__
 571:FrameMgr.c    ****                 else if (color == 32) k=2;
 746               		.loc 1 571 0
 747 033a CC24      		clr r12
 748 033c C394      		inc r12
 572:FrameMgr.c    ****                 else if (color == 16) k=3;
 749               		.loc 1 572 0
 750 033e 6894      		set
 751 0340 BB24      		clr r11
 752 0342 B1F8      		bld r11,1
 573:FrameMgr.c    ****                 else if (color == 8)  k=4;
 753               		.loc 1 573 0
 754 0344 0F2E      		mov __tmp_reg__,r31
 755 0346 F3E0      		ldi r31,lo8(3)
 756 0348 AF2E      		mov r10,r31
 757 034a F02D      		mov r31,__tmp_reg__
 574:FrameMgr.c    ****                 else if (color == 4)  k=5;
 758               		.loc 1 574 0
 759 034c 6894      		set
 760 034e 9924      		clr r9
 761 0350 92F8      		bld r9,2
 575:FrameMgr.c    ****                 else if (color == 2)  k=6;
 762               		.loc 1 575 0
 763 0352 0F2E      		mov __tmp_reg__,r31
 764 0354 F5E0      		ldi r31,lo8(5)
 765 0356 8F2E      		mov r8,r31
 766 0358 F02D      		mov r31,__tmp_reg__
 576:FrameMgr.c    ****                 else if (color == 1)  k=7;
 767               		.loc 1 576 0
 768 035a 0F2E      		mov __tmp_reg__,r31
 769 035c F6E0      		ldi r31,lo8(6)
 770 035e 7F2E      		mov r7,r31
 771 0360 F02D      		mov r31,__tmp_reg__
 577:FrameMgr.c    ****                 
 772               		.loc 1 577 0
 773 0362 0F2E      		mov __tmp_reg__,r31
 774 0364 F7E0      		ldi r31,lo8(7)
 775 0366 6F2E      		mov r6,r31
 776 0368 F02D      		mov r31,__tmp_reg__
 777               	.LVL47:
 778               	.L65:
 564:FrameMgr.c    ****             {
 779               		.loc 1 564 0
 780 036a 8F81      		ldd r24,Y+7
 781 036c 8130      		cpi r24,lo8(1)
 782 036e 01F4      		brne .L63
 783               	.LVL48:
 569:FrameMgr.c    ****                 if (color == 128) k=0;
 784               		.loc 1 569 0
 785 0370 8881      		ld r24,Y
 786               	.LVL49:
 570:FrameMgr.c    ****                 else if (color == 64) k=1;
 787               		.loc 1 570 0
 788 0372 8038      		cpi r24,lo8(-128)
 789 0374 01F0      		breq .L66
 571:FrameMgr.c    ****                 else if (color == 32) k=2;
GAS LISTING C:\Users\Joe\AppData\Local\Temp\ccGFCZfB.s 			page 30


 790               		.loc 1 571 0
 791 0376 8034      		cpi r24,lo8(64)
 792 0378 01F0      		breq .L67
 572:FrameMgr.c    ****                 else if (color == 16) k=3;
 793               		.loc 1 572 0
 794 037a 8032      		cpi r24,lo8(32)
 795 037c 01F0      		breq .L68
 573:FrameMgr.c    ****                 else if (color == 8)  k=4;
 796               		.loc 1 573 0
 797 037e 8031      		cpi r24,lo8(16)
 798 0380 01F0      		breq .L69
 574:FrameMgr.c    ****                 else if (color == 4)  k=5;
 799               		.loc 1 574 0
 800 0382 8830      		cpi r24,lo8(8)
 801 0384 01F0      		breq .L70
 575:FrameMgr.c    ****                 else if (color == 2)  k=6;
 802               		.loc 1 575 0
 803 0386 8430      		cpi r24,lo8(4)
 804 0388 01F0      		breq .L71
 576:FrameMgr.c    ****                 else if (color == 1)  k=7;
 805               		.loc 1 576 0
 806 038a 8230      		cpi r24,lo8(2)
 807 038c 01F0      		breq .L72
 577:FrameMgr.c    ****                 
 808               		.loc 1 577 0
 809 038e 8130      		cpi r24,lo8(1)
 810 0390 01F4      		brne .L73
 811 0392 862D      		mov r24,r6
 812               	.LVL50:
 813 0394 00C0      		rjmp .L64
 814               	.LVL51:
 815               	.L66:
 570:FrameMgr.c    ****                 else if (color == 64) k=1;
 816               		.loc 1 570 0
 817 0396 8D2D      		mov r24,r13
 818               	.LVL52:
 819 0398 00C0      		rjmp .L64
 820               	.LVL53:
 821               	.L67:
 571:FrameMgr.c    ****                 else if (color == 32) k=2;
 822               		.loc 1 571 0
 823 039a 8C2D      		mov r24,r12
 824               	.LVL54:
 825 039c 00C0      		rjmp .L64
 826               	.LVL55:
 827               	.L68:
 572:FrameMgr.c    ****                 else if (color == 16) k=3;
 828               		.loc 1 572 0
 829 039e 8B2D      		mov r24,r11
 830               	.LVL56:
 831 03a0 00C0      		rjmp .L64
 832               	.LVL57:
 833               	.L69:
 573:FrameMgr.c    ****                 else if (color == 8)  k=4;
 834               		.loc 1 573 0
 835 03a2 8A2D      		mov r24,r10
 836               	.LVL58:
GAS LISTING C:\Users\Joe\AppData\Local\Temp\ccGFCZfB.s 			page 31


 837 03a4 00C0      		rjmp .L64
 838               	.LVL59:
 839               	.L70:
 574:FrameMgr.c    ****                 else if (color == 4)  k=5;
 840               		.loc 1 574 0
 841 03a6 892D      		mov r24,r9
 842               	.LVL60:
 843 03a8 00C0      		rjmp .L64
 844               	.LVL61:
 845               	.L71:
 575:FrameMgr.c    ****                 else if (color == 2)  k=6;
 846               		.loc 1 575 0
 847 03aa 882D      		mov r24,r8
 848               	.LVL62:
 849 03ac 00C0      		rjmp .L64
 850               	.LVL63:
 851               	.L72:
 576:FrameMgr.c    ****                 else if (color == 1)  k=7;
 852               		.loc 1 576 0
 853 03ae 872D      		mov r24,r7
 854               	.LVL64:
 855 03b0 00C0      		rjmp .L64
 856               	.LVL65:
 857               	.L73:
 568:FrameMgr.c    ****                 color = *(pTableData + COLOR_OFFSET);
 858               		.loc 1 568 0
 859 03b2 8D2D      		mov r24,r13
 860               	.LVL66:
 861               	.L64:
 579:FrameMgr.c    ****                 tmpUpperLeftY = *(pTableData + Y_UPPER_LEFT_OFFSET);		/* get the upper left Y */		
 862               		.loc 1 579 0
 863 03b4 EB80      		ldd r14,Y+3
 864               	.LVL67:
 580:FrameMgr.c    ****                 tmpLowerRightX = *(pTableData + X_LOWER_RIGHT_OFFSET);		/* get the lower right X */
 865               		.loc 1 580 0
 866 03b6 FC80      		ldd r15,Y+4
 867               	.LVL68:
 581:FrameMgr.c    ****                 tmpLowerRightY = *(pTableData + Y_LOWER_RIGHT_OFFSET);		/* get the lower right Y */
 868               		.loc 1 581 0
 869 03b8 0D81      		ldd r16,Y+5
 870               	.LVL69:
 582:FrameMgr.c    ****                 
 871               		.loc 1 582 0
 872 03ba 1E81      		ldd r17,Y+6
 873               	.LVL70:
 584:FrameMgr.c    ****                 UIMgr_writeTxFifo(tmpUpperLeftX);
 874               		.loc 1 584 0
 875 03bc 00D0      		rcall UIMgr_writeTxFifo
 876               	.LVL71:
 585:FrameMgr.c    ****                 UIMgr_writeTxFifo(tmpUpperLeftY);
 877               		.loc 1 585 0
 878 03be 8E2D      		mov r24,r14
 879 03c0 00D0      		rcall UIMgr_writeTxFifo
 880               	.LVL72:
 586:FrameMgr.c    ****                 UIMgr_writeTxFifo(tmpLowerRightX);
 881               		.loc 1 586 0
 882 03c2 8F2D      		mov r24,r15
GAS LISTING C:\Users\Joe\AppData\Local\Temp\ccGFCZfB.s 			page 32


 883 03c4 00D0      		rcall UIMgr_writeTxFifo
 884               	.LVL73:
 587:FrameMgr.c    ****                 UIMgr_writeTxFifo(tmpLowerRightY);			
 885               		.loc 1 587 0
 886 03c6 802F      		mov r24,r16
 887 03c8 00D0      		rcall UIMgr_writeTxFifo
 888               	.LVL74:
 588:FrameMgr.c    ****             }
 889               		.loc 1 588 0
 890 03ca 812F      		mov r24,r17
 891 03cc 00D0      		rcall UIMgr_writeTxFifo
 892               	.LVL75:
 893               	.L63:
 592:FrameMgr.c    ****         }
 894               		.loc 1 592 0 discriminator 2
 895 03ce 2896      		adiw r28,8
 896               	.LVL76:
 560:FrameMgr.c    **** 		{
 897               		.loc 1 560 0 discriminator 2
 898 03d0 80E0      		ldi r24,hi8(trackedObjectTable+64)
 899 03d2 C030      		cpi r28,lo8(trackedObjectTable+64)
 900 03d4 D807      		cpc r29,r24
 901 03d6 01F4      		brne .L65
 596:FrameMgr.c    **** 	}	
 902               		.loc 1 596 0
 903 03d8 8FEF      		ldi r24,lo8(-1)
 904 03da 00D0      		rcall UIMgr_writeTxFifo
 905               	.LVL77:
 906               	.L62:
 605:FrameMgr.c    **** }
 907               		.loc 1 605 0
 908 03dc 84E0      		ldi r24,lo8(4)
 909 03de 00D0      		rcall Exec_writeEventFifo
 910               	.LVL78:
 911               	/* epilogue start */
 606:FrameMgr.c    **** 
 912               		.loc 1 606 0
 913 03e0 DF91      		pop r29
 914 03e2 CF91      		pop r28
 915 03e4 1F91      		pop r17
 916 03e6 0F91      		pop r16
 917 03e8 FF90      		pop r15
 918 03ea EF90      		pop r14
 919 03ec DF90      		pop r13
 920 03ee CF90      		pop r12
 921 03f0 BF90      		pop r11
 922 03f2 AF90      		pop r10
 923 03f4 9F90      		pop r9
 924 03f6 8F90      		pop r8
 925 03f8 7F90      		pop r7
 926 03fa 6F90      		pop r6
 927 03fc 0895      		ret
 928               		.cfi_endproc
 929               	.LFE9:
 930               		.size	FrameMgr_processFrame, .-FrameMgr_processFrame
 931               	.global	FrameMgr_dispatchEvent
 932               		.type	FrameMgr_dispatchEvent, @function
GAS LISTING C:\Users\Joe\AppData\Local\Temp\ccGFCZfB.s 			page 33


 933               	FrameMgr_dispatchEvent:
 934               	.LFB5:
 205:FrameMgr.c    **** 	switch(event)
 935               		.loc 1 205 0
 936               		.cfi_startproc
 937               	.LVL79:
 938               	/* prologue: function */
 939               	/* frame size = 0 */
 940               	/* stack size = 0 */
 941               	.L__stack_usage = 0
 206:FrameMgr.c    **** 	{
 942               		.loc 1 206 0
 943 03fe 8430      		cpi r24,lo8(4)
 944 0400 01F0      		breq .L77
 945 0402 00F4      		brsh .L78
 946 0404 8130      		cpi r24,lo8(1)
 947 0406 01F0      		breq .L79
 948 0408 8230      		cpi r24,lo8(2)
 949 040a 01F0      		breq .L80
 950 040c 0895      		ret
 951               	.L78:
 952 040e 8038      		cpi r24,lo8(-128)
 953 0410 01F0      		breq .L81
 954 0412 8138      		cpi r24,lo8(-127)
 955 0414 01F0      		breq .L82
 956 0416 8032      		cpi r24,lo8(32)
 957 0418 01F4      		brne .L75
 958 041a 00C0      		rjmp .L83
 959               	.L80:
 211:FrameMgr.c    **** 			CamConfig_sendFifoCmds();
 960               		.loc 1 211 0
 961 041c 61E0      		ldi r22,lo8(1)
 962 041e 81E1      		ldi r24,lo8(17)
 963               	.LVL80:
 964 0420 00D0      		rcall CamConfig_setCamReg
 965               	.LVL81:
 212:FrameMgr.c    **** 			Utility_delay(1000);		/* allow the new frame rate to settle */
 966               		.loc 1 212 0
 967 0422 00D0      		rcall CamConfig_sendFifoCmds
 968               	.LVL82:
 213:FrameMgr.c    **** 			lineCount = 0;
 969               		.loc 1 213 0
 970 0424 88EE      		ldi r24,lo8(-24)
 971 0426 93E0      		ldi r25,lo8(3)
 972 0428 00D0      		rcall Utility_delay
 973               	.LVL83:
 214:FrameMgr.c    **** 			currentState = ST_FrameMgr_DumpingFrame;
 974               		.loc 1 214 0
 975 042a 1092 0000 		sts lineCount,__zero_reg__
 215:FrameMgr.c    **** 			//CamIntAsm_waitForNewDumpFrame(currentLineBuffer,previousLineBuffer);
 976               		.loc 1 215 0
 977 042e 82E0      		ldi r24,lo8(2)
 978 0430 8093 0000 		sts currentState,r24
 217:FrameMgr.c    **** 			break;
 979               		.loc 1 217 0
 980 0434 00D0      		rcall FrameMgr_acquireLine
 981               	.LVL84:
GAS LISTING C:\Users\Joe\AppData\Local\Temp\ccGFCZfB.s 			page 34


 218:FrameMgr.c    **** 		
 982               		.loc 1 218 0
 983 0436 0895      		ret
 984               	.LVL85:
 985               	.L81:
 221:FrameMgr.c    **** 			FrameMgr_acquireFrame();
 986               		.loc 1 221 0
 987 0438 81E0      		ldi r24,lo8(1)
 988               	.LVL86:
 989 043a 8093 0000 		sts currentState,r24
 222:FrameMgr.c    **** 			break;
 990               		.loc 1 222 0
 991 043e 00D0      		rcall FrameMgr_acquireFrame
 992               	.LVL87:
 223:FrameMgr.c    **** 			
 993               		.loc 1 223 0
 994 0440 0895      		ret
 995               	.LVL88:
 996               	.L83:
 226:FrameMgr.c    **** 			break;
 997               		.loc 1 226 0
 998 0442 00D0      		rcall FrameMgr_processFrame
 999               	.LVL89:
 227:FrameMgr.c    **** 		
 1000               		.loc 1 227 0
 1001 0444 0895      		ret
 1002               	.LVL90:
 1003               	.L77:
 230:FrameMgr.c    **** 			break;
 1004               		.loc 1 230 0
 1005 0446 00D0      		rcall FrameMgr_acquireFrame
 1006               	.LVL91:
 231:FrameMgr.c    **** 
 1007               		.loc 1 231 0
 1008 0448 0895      		ret
 1009               	.LVL92:
 1010               	.L79:
 234:FrameMgr.c    **** 			{
 1011               		.loc 1 234 0
 1012 044a 8091 0000 		lds r24,currentState
 1013               	.LVL93:
 1014 044e 8823      		tst r24
 1015 0450 01F0      		breq .L75
 240:FrameMgr.c    **** 			}
 1016               		.loc 1 240 0
 1017 0452 84E0      		ldi r24,lo8(4)
 1018 0454 00D0      		rcall Exec_writeEventFifo
 1019               	.LVL94:
 1020 0456 0895      		ret
 1021               	.LVL95:
 1022               	.L82:
 246:FrameMgr.c    **** 			break;
 1023               		.loc 1 246 0
 1024 0458 1092 0000 		sts currentState,__zero_reg__
 1025               	.LVL96:
 1026               	.L75:
 1027 045c 0895      		ret
GAS LISTING C:\Users\Joe\AppData\Local\Temp\ccGFCZfB.s 			page 35


 1028               		.cfi_endproc
 1029               	.LFE5:
 1030               		.size	FrameMgr_dispatchEvent, .-FrameMgr_dispatchEvent
 1031               		.local	trackedLineCount
 1032               		.comm	trackedLineCount,1,1
 1033               		.local	numCurrTrackedObjects
 1034               		.comm	numCurrTrackedObjects,1,1
 1035               		.local	currentState
 1036               		.comm	currentState,1,1
 1037               		.local	lineCount
 1038               		.comm	lineCount,1,1
 1039               		.local	trackedObjectTable
 1040               		.comm	trackedObjectTable,64,1
 1041               	.Letext0:
 1042               		.file 2 "c:\\program files (x86)\\atmel\\studio\\7.0\\toolchain\\avr8\\avr8-gnu-toolchain\\avr\\in
 1043               		.file 3 "CommonDefs.h"
 1044               		.file 4 "Executive.h"
 1045               		.file 5 "CamInterface.h"
 1046               		.file 6 "UartInterface.h"
 1047               		.file 7 "CamConfig.h"
 1048               		.file 8 "UIMgr.h"
 1049               		.file 9 "Utility.h"