GAS LISTING C:\Users\Joe\AppData\Local\Temp\ccTlOKC3.s 			page 1


   1               		.file	"I2CInterface.c"
   2               	__SP_H__ = 0x3e
   3               	__SP_L__ = 0x3d
   4               	__SREG__ = 0x3f
   5               	__tmp_reg__ = 0
   6               	__zero_reg__ = 1
   7               		.text
   8               	.Ltext0:
   9               		.cfi_sections	.debug_frame
  10               	.global	I2CInt_init
  11               		.type	I2CInt_init, @function
  12               	I2CInt_init:
  13               	.LFB0:
  14               		.file 1 "I2CInterface.c"
   1:I2CInterface.c **** /*
   2:I2CInterface.c ****     Copyright (C) 2004    John Orlando
   3:I2CInterface.c ****     
   4:I2CInterface.c ****    AVRcam: a small real-time image processing engine.
   5:I2CInterface.c **** 
   6:I2CInterface.c ****     This program is free software; you can redistribute it and/or
   7:I2CInterface.c ****     modify it under the terms of the GNU General Public
   8:I2CInterface.c ****     License as published by the Free Software Foundation; either
   9:I2CInterface.c ****     version 2 of the License, or (at your option) any later version.
  10:I2CInterface.c **** 
  11:I2CInterface.c ****     This program is distributed in the hope that it will be useful,
  12:I2CInterface.c ****     but WITHOUT ANY WARRANTY; without even the implied warranty of
  13:I2CInterface.c ****     MERCHANTABILITY or FITNESS FOR A PARTICULAR PURPOSE.  See the GNU
  14:I2CInterface.c ****     General Public License for more details.
  15:I2CInterface.c **** 
  16:I2CInterface.c ****     You should have received a copy of the GNU General Public
  17:I2CInterface.c ****     License along with this program; if not, write to the Free Software
  18:I2CInterface.c ****     Foundation, Inc., 59 Temple Place, Suite 330, Boston, MA  02111-1307  USA
  19:I2CInterface.c **** 
  20:I2CInterface.c ****    For more information on the AVRcam, please contact:
  21:I2CInterface.c **** 
  22:I2CInterface.c ****    john@jrobot.net
  23:I2CInterface.c **** 
  24:I2CInterface.c ****    or go to www.jrobot.net for more details regarding the system.
  25:I2CInterface.c **** */
  26:I2CInterface.c **** /***********************************************************
  27:I2CInterface.c **** 	Module Name: I2CInterface.c
  28:I2CInterface.c **** 	Module Date: 4/10/2004
  29:I2CInterface.c **** 	Module Auth: John Orlando
  30:I2CInterface.c **** 	
  31:I2CInterface.c **** 	Description: This module is responsible for providing a
  32:I2CInterface.c **** 	low-level interface to the I2C hardware resident on the
  33:I2CInterface.c **** 	mega8 processor (also known as the Two-Wire Interface,
  34:I2CInterface.c **** 	or TWI).  The interface is needed to configure the
  35:I2CInterface.c **** 	needed registers in the OV6620 camera.  This interface
  36:I2CInterface.c **** 	is interrupt-driven based on the events that should
  37:I2CInterface.c **** 	occur upon successful writing of an I2C register.
  38:I2CInterface.c ****     
  39:I2CInterface.c ****     Revision History:
  40:I2CInterface.c ****     Date        Rel Ver.    Notes
  41:I2CInterface.c ****     4/10/2004      0.1     Module created
  42:I2CInterface.c ****     6/30/2004      1.0     Initial release for Circuit Cellar
  43:I2CInterface.c ****                            contest.
GAS LISTING C:\Users\Joe\AppData\Local\Temp\ccTlOKC3.s 			page 2


  44:I2CInterface.c **** 
  45:I2CInterface.c **** ***********************************************************/
  46:I2CInterface.c **** 
  47:I2CInterface.c **** /*	Includes */
  48:I2CInterface.c **** #include <avr/io.h>
  49:I2CInterface.c **** #include <util/twi.h>
  50:I2CInterface.c **** #include <avr/signal.h>
  51:I2CInterface.c **** #include <avr/interrupt.h>
  52:I2CInterface.c **** #include "CamConfig.h"
  53:I2CInterface.c **** #include "CommonDefs.h"
  54:I2CInterface.c **** 
  55:I2CInterface.c **** /*  Local Variables */
  56:I2CInterface.c **** 
  57:I2CInterface.c **** /* These variables are used as storage space for the current
  58:I2CInterface.c ****    I2C command being sent over the interface.  They need to
  59:I2CInterface.c ****    be volatile since they are dealt with an the TWI ISR */
  60:I2CInterface.c **** volatile static unsigned char twi_address;
  61:I2CInterface.c **** volatile static unsigned char *twi_data;
  62:I2CInterface.c **** volatile static unsigned char twi_ddr;
  63:I2CInterface.c **** volatile static unsigned char twi_bytes;
  64:I2CInterface.c **** volatile static unsigned char status;
  65:I2CInterface.c **** volatile static unsigned char retry_cnt;
  66:I2CInterface.c **** 
  67:I2CInterface.c **** /* 	Local Structures and Typedefs */
  68:I2CInterface.c **** 
  69:I2CInterface.c **** /*  Extern Variables */
  70:I2CInterface.c **** 
  71:I2CInterface.c **** /*  Definitions */
  72:I2CInterface.c **** /* Bit definitions for the tw_status register */
  73:I2CInterface.c **** #define MAX_TWI_RETRIES 2
  74:I2CInterface.c **** #define BUSY 7
  75:I2CInterface.c **** 
  76:I2CInterface.c **** /***********************************************************
  77:I2CInterface.c **** 	Function Name: I2CInt_init
  78:I2CInterface.c **** 	Function Description: This function is responsible
  79:I2CInterface.c **** 	for setting up the registers needed for the TWI 
  80:I2CInterface.c **** 	interface
  81:I2CInterface.c **** 	
  82:I2CInterface.c **** 	Inputs:  none
  83:I2CInterface.c **** 	Outputs: none
  84:I2CInterface.c **** ***********************************************************/	
  85:I2CInterface.c **** void I2CInt_init(void)
  86:I2CInterface.c **** {
  15               		.loc 1 86 0
  16               		.cfi_startproc
  17               	/* prologue: function */
  18               	/* frame size = 0 */
  19               	/* stack size = 0 */
  20               	.L__stack_usage = 0
  87:I2CInterface.c **** 	TWSR = 0;
  21               		.loc 1 87 0
  22 0000 11B8      		out 0x1,__zero_reg__
  88:I2CInterface.c ****     
  89:I2CInterface.c **** 	/* init the speed of the I2C interface, running at
  90:I2CInterface.c ****     100 Kbps */
  91:I2CInterface.c **** 	TWBR = (FOSC / I2C_SPEED - 16)/2;
  23               		.loc 1 91 0
GAS LISTING C:\Users\Joe\AppData\Local\Temp\ccTlOKC3.s 			page 3


  24 0002 88E4      		ldi r24,lo8(72)
  25 0004 80B9      		out 0,r24
  26 0006 0895      		ret
  27               		.cfi_endproc
  28               	.LFE0:
  29               		.size	I2CInt_init, .-I2CInt_init
  30               	.global	I2CInt_writeData
  31               		.type	I2CInt_writeData, @function
  32               	I2CInt_writeData:
  33               	.LFB1:
  92:I2CInterface.c **** }
  93:I2CInterface.c **** 
  94:I2CInterface.c **** /***********************************************************
  95:I2CInterface.c **** 	Function Name: I2CInt_writeData
  96:I2CInterface.c **** 	Function Description: This function is responsible for
  97:I2CInterface.c **** 	initiating the process of writing a sequence of bytes
  98:I2CInterface.c **** 	an I2C slave address.  This function will try to write
  99:I2CInterface.c **** 	the data three times before giving up.
 100:I2CInterface.c **** 	Inputs: address: the address of the I2C slave device
 101:I2CInterface.c **** 			data: a pointer to the data to be written 
 102:I2CInterface.c **** 				  to the slave...for camera interfacing,
 103:I2CInterface.c **** 				  the data follows a <register #><data>
 104:I2CInterface.c **** 				  format
 105:I2CInterface.c **** 			bytes: the number of bytes to write 
 106:I2CInterface.c **** 	Outputs: none
 107:I2CInterface.c **** ***********************************************************/
 108:I2CInterface.c **** void I2CInt_writeData(unsigned char address, unsigned char *data, unsigned char bytes)
 109:I2CInterface.c **** {
  34               		.loc 1 109 0
  35               		.cfi_startproc
  36               	/* prologue: function */
  37               	/* frame size = 0 */
  38               	/* stack size = 0 */
  39               	.L__stack_usage = 0
  40               	.LVL0:
  41               	.L3:
 110:I2CInterface.c **** 	while(status & (1<<BUSY));		/* Bus is busy wait (or exit with error code) */
  42               		.loc 1 110 0 discriminator 1
  43 0008 9091 0000 		lds r25,status
  44 000c 9923      		tst r25
  45 000e 04F0      		brlt .L3
  46               	.L5:
 111:I2CInterface.c **** 	while(TWCR & (1<<TWSTO));
  47               		.loc 1 111 0 discriminator 1
  48 0010 06B6      		in __tmp_reg__,0x36
  49 0012 04FC      		sbrc __tmp_reg__,4
  50 0014 00C0      		rjmp .L5
 112:I2CInterface.c **** 	
 113:I2CInterface.c **** 	/* copy the needed data and state info to our local I2C command structure */
 114:I2CInterface.c **** 	twi_address = address;
  51               		.loc 1 114 0
  52 0016 8093 0000 		sts twi_address,r24
 115:I2CInterface.c **** 	twi_data = data;
  53               		.loc 1 115 0
  54 001a 7093 0000 		sts twi_data+1,r23
  55 001e 6093 0000 		sts twi_data,r22
 116:I2CInterface.c **** 	twi_bytes = bytes;
GAS LISTING C:\Users\Joe\AppData\Local\Temp\ccTlOKC3.s 			page 4


  56               		.loc 1 116 0
  57 0022 4093 0000 		sts twi_bytes,r20
 117:I2CInterface.c **** 	twi_ddr = TW_WRITE;
  58               		.loc 1 117 0
  59 0026 1092 0000 		sts twi_ddr,__zero_reg__
 118:I2CInterface.c **** 
 119:I2CInterface.c **** 	retry_cnt = 0;
  60               		.loc 1 119 0
  61 002a 1092 0000 		sts retry_cnt,__zero_reg__
 120:I2CInterface.c **** 	
 121:I2CInterface.c **** 	/* Generate start condition, the remainder of the transfer is interrupt driven and
 122:I2CInterface.c **** 	   will be performed in the background */
 123:I2CInterface.c **** 	TWCR = (1<<TWINT)|(1<<TWSTA)|(1<<TWEN)|(1<<TWIE);
  62               		.loc 1 123 0
  63 002e 85EA      		ldi r24,lo8(-91)
  64               	.LVL1:
  65 0030 86BF      		out 0x36,r24
 124:I2CInterface.c **** 	
 125:I2CInterface.c **** 	status |= (1<<BUSY);
  66               		.loc 1 125 0
  67 0032 8091 0000 		lds r24,status
  68 0036 8068      		ori r24,lo8(-128)
  69 0038 8093 0000 		sts status,r24
  70 003c 0895      		ret
  71               		.cfi_endproc
  72               	.LFE1:
  73               		.size	I2CInt_writeData, .-I2CInt_writeData
  74               	.global	I2CInt_readData
  75               		.type	I2CInt_readData, @function
  76               	I2CInt_readData:
  77               	.LFB2:
 126:I2CInterface.c **** }
 127:I2CInterface.c **** 
 128:I2CInterface.c **** /***********************************************************
 129:I2CInterface.c **** 	Function Name: I2CInt_readData
 130:I2CInterface.c **** 	Function Description: This funcion is responsible for
 131:I2CInterface.c **** 	reading the specified number of bytes from a slave
 132:I2CInterface.c **** 	device.
 133:I2CInterface.c **** 	Inputs:  address: the slave address to read from
 134:I2CInterface.c **** 			 data: a pointer to where the data will be stored
 135:I2CInterface.c **** 			 bytes: the number of bytes to read
 136:I2CInterface.c **** 	Outputs: none
 137:I2CInterface.c **** ***********************************************************/
 138:I2CInterface.c **** void I2CInt_readData(unsigned char address, unsigned char *data, unsigned char bytes)
 139:I2CInterface.c **** {
  78               		.loc 1 139 0
  79               		.cfi_startproc
  80               	/* prologue: function */
  81               	/* frame size = 0 */
  82               	/* stack size = 0 */
  83               	.L__stack_usage = 0
  84               	.LVL2:
  85               	.L9:
 140:I2CInterface.c ****     /* Bus is busy wait (or exit with error code) */
 141:I2CInterface.c **** 	while(status & (1<<BUSY));									
  86               		.loc 1 141 0 discriminator 1
  87 003e 9091 0000 		lds r25,status
GAS LISTING C:\Users\Joe\AppData\Local\Temp\ccTlOKC3.s 			page 5


  88 0042 9923      		tst r25
  89 0044 04F0      		brlt .L9
 142:I2CInterface.c **** 
 143:I2CInterface.c **** 	twi_address = address;
  90               		.loc 1 143 0
  91 0046 8093 0000 		sts twi_address,r24
 144:I2CInterface.c **** 	twi_data = data;
  92               		.loc 1 144 0
  93 004a 7093 0000 		sts twi_data+1,r23
  94 004e 6093 0000 		sts twi_data,r22
 145:I2CInterface.c **** 	twi_bytes = bytes;
  95               		.loc 1 145 0
  96 0052 4093 0000 		sts twi_bytes,r20
 146:I2CInterface.c **** 	twi_ddr = TW_READ;
  97               		.loc 1 146 0
  98 0056 81E0      		ldi r24,lo8(1)
  99               	.LVL3:
 100 0058 8093 0000 		sts twi_ddr,r24
 147:I2CInterface.c **** 
 148:I2CInterface.c **** 	retry_cnt = 0;
 101               		.loc 1 148 0
 102 005c 1092 0000 		sts retry_cnt,__zero_reg__
 149:I2CInterface.c **** 	
 150:I2CInterface.c **** 	/* Generate start condition, the remainder of the transfer is interrupt driven and
 151:I2CInterface.c **** 	   will be performed in the background */
 152:I2CInterface.c **** 	TWCR = (1<<TWINT)|(1<<TWSTA)|(1<<TWEN)|(1<<TWIE);
 103               		.loc 1 152 0
 104 0060 85EA      		ldi r24,lo8(-91)
 105 0062 86BF      		out 0x36,r24
 153:I2CInterface.c **** 	
 154:I2CInterface.c **** 	status |= (1<<BUSY);
 106               		.loc 1 154 0
 107 0064 8091 0000 		lds r24,status
 108 0068 8068      		ori r24,lo8(-128)
 109 006a 8093 0000 		sts status,r24
 110 006e 0895      		ret
 111               		.cfi_endproc
 112               	.LFE2:
 113               		.size	I2CInt_readData, .-I2CInt_readData
 114               	.global	I2CInt_isI2cBusy
 115               		.type	I2CInt_isI2cBusy, @function
 116               	I2CInt_isI2cBusy:
 117               	.LFB3:
 155:I2CInterface.c **** }
 156:I2CInterface.c **** 
 157:I2CInterface.c **** /***********************************************************
 158:I2CInterface.c **** 	Function Name: I2CInt_isI2cBusy
 159:I2CInterface.c **** 	Function Description: This funcion is responsible for
 160:I2CInterface.c **** 	indicating if the I2C bus is currently busy to external
 161:I2CInterface.c **** 	modules.
 162:I2CInterface.c **** 	device.
 163:I2CInterface.c **** 	Inputs:  none
 164:I2CInterface.c **** 	Outputs: bool_t - indicating if bus is busy
 165:I2CInterface.c **** ***********************************************************/
 166:I2CInterface.c **** bool_t I2CInt_isI2cBusy(void)
 167:I2CInterface.c **** {
 118               		.loc 1 167 0
GAS LISTING C:\Users\Joe\AppData\Local\Temp\ccTlOKC3.s 			page 6


 119               		.cfi_startproc
 120               	/* prologue: function */
 121               	/* frame size = 0 */
 122               	/* stack size = 0 */
 123               	.L__stack_usage = 0
 124               	.LVL4:
 168:I2CInterface.c **** 	bool_t retVal = FALSE;
 169:I2CInterface.c **** 	if ( (status & (1<<BUSY)) != 0)
 125               		.loc 1 169 0
 126 0070 8091 0000 		lds r24,status
 127               	.LVL5:
 170:I2CInterface.c **** 	{
 171:I2CInterface.c **** 		retVal = TRUE;
 172:I2CInterface.c **** 	}
 173:I2CInterface.c **** 	
 174:I2CInterface.c **** 	return(retVal);
 175:I2CInterface.c **** }
 128               		.loc 1 175 0
 129 0074 881F      		rol r24
 130 0076 8827      		clr r24
 131 0078 881F      		rol r24
 132               	.LVL6:
 133 007a 0895      		ret
 134               		.cfi_endproc
 135               	.LFE3:
 136               		.size	I2CInt_isI2cBusy, .-I2CInt_isI2cBusy
 137               	.global	__vector_17
 138               		.type	__vector_17, @function
 139               	__vector_17:
 140               	.LFB4:
 176:I2CInterface.c **** 
 177:I2CInterface.c **** /***********************************************************
 178:I2CInterface.c **** 	Function Name: <interrupt handler for I2C>
 179:I2CInterface.c **** 	Function Description: This function is responsible for
 180:I2CInterface.c **** 	implementing the control logic needed to perform a
 181:I2CInterface.c **** 	read or write operation with an I2C slave.
 182:I2CInterface.c **** 	Inputs:  none
 183:I2CInterface.c **** 	Outputs: none
 184:I2CInterface.c **** ***********************************************************/
 185:I2CInterface.c **** SIGNAL(TWI_vect)
 186:I2CInterface.c **** {
 141               		.loc 1 186 0
 142               		.cfi_startproc
 143 007c 1F92      		push r1
 144               	.LCFI0:
 145               		.cfi_def_cfa_offset 3
 146               		.cfi_offset 1, -2
 147 007e 0F92      		push r0
 148               	.LCFI1:
 149               		.cfi_def_cfa_offset 4
 150               		.cfi_offset 0, -3
 151 0080 0FB6      		in r0,__SREG__
 152 0082 0F92      		push r0
 153 0084 1124      		clr __zero_reg__
 154 0086 8F93      		push r24
 155               	.LCFI2:
 156               		.cfi_def_cfa_offset 5
GAS LISTING C:\Users\Joe\AppData\Local\Temp\ccTlOKC3.s 			page 7


 157               		.cfi_offset 24, -4
 158 0088 9F93      		push r25
 159               	.LCFI3:
 160               		.cfi_def_cfa_offset 6
 161               		.cfi_offset 25, -5
 162 008a AF93      		push r26
 163               	.LCFI4:
 164               		.cfi_def_cfa_offset 7
 165               		.cfi_offset 26, -6
 166 008c BF93      		push r27
 167               	.LCFI5:
 168               		.cfi_def_cfa_offset 8
 169               		.cfi_offset 27, -7
 170 008e EF93      		push r30
 171               	.LCFI6:
 172               		.cfi_def_cfa_offset 9
 173               		.cfi_offset 30, -8
 174 0090 FF93      		push r31
 175               	.LCFI7:
 176               		.cfi_def_cfa_offset 10
 177               		.cfi_offset 31, -9
 178               	/* prologue: Signal */
 179               	/* frame size = 0 */
 180               	/* stack size = 9 */
 181               	.L__stack_usage = 9
 187:I2CInterface.c **** 	unsigned char TWI_status = TWSR & TW_STATUS_MASK;   /* grab just the status bits */
 182               		.loc 1 187 0
 183 0092 81B1      		in r24,0x1
 184               	.LVL7:
 188:I2CInterface.c **** 	
 189:I2CInterface.c ****     /* the entire I2C handler is state-based...determine
 190:I2CInterface.c ****     what needs to be done based on TWI_status */
 191:I2CInterface.c **** 	switch(TWI_status) 
 185               		.loc 1 191 0
 186 0094 E82F      		mov r30,r24
 187 0096 E87F      		andi r30,lo8(-8)
 188               	.LVL8:
 189 0098 8E2F      		mov r24,r30
 190 009a 90E0      		ldi r25,0
 191 009c FC01      		movw r30,r24
 192               	.LVL9:
 193 009e 3897      		sbiw r30,8
 194 00a0 E135      		cpi r30,81
 195 00a2 F105      		cpc r31,__zero_reg__
 196 00a4 00F0      		brlo .+2
 197 00a6 00C0      		rjmp .L12
 198 00a8 E050      		subi r30,lo8(-(gs(.L15)))
 199 00aa F040      		sbci r31,hi8(-(gs(.L15)))
 200 00ac 0994      		ijmp
 201               		.section	.progmem.gcc_sw_table,"ax",@progbits
 202               		.p2align	1
 203               	.L15:
 204 0000 00C0      		rjmp .L14
 205 0002 00C0      		rjmp .L12
 206 0004 00C0      		rjmp .L12
 207 0006 00C0      		rjmp .L12
 208 0008 00C0      		rjmp .L12
GAS LISTING C:\Users\Joe\AppData\Local\Temp\ccTlOKC3.s 			page 8


 209 000a 00C0      		rjmp .L12
 210 000c 00C0      		rjmp .L12
 211 000e 00C0      		rjmp .L12
 212 0010 00C0      		rjmp .L14
 213 0012 00C0      		rjmp .L12
 214 0014 00C0      		rjmp .L12
 215 0016 00C0      		rjmp .L12
 216 0018 00C0      		rjmp .L12
 217 001a 00C0      		rjmp .L12
 218 001c 00C0      		rjmp .L12
 219 001e 00C0      		rjmp .L12
 220 0020 00C0      		rjmp .L16
 221 0022 00C0      		rjmp .L12
 222 0024 00C0      		rjmp .L12
 223 0026 00C0      		rjmp .L12
 224 0028 00C0      		rjmp .L12
 225 002a 00C0      		rjmp .L12
 226 002c 00C0      		rjmp .L12
 227 002e 00C0      		rjmp .L12
 228 0030 00C0      		rjmp .L17
 229 0032 00C0      		rjmp .L12
 230 0034 00C0      		rjmp .L12
 231 0036 00C0      		rjmp .L12
 232 0038 00C0      		rjmp .L12
 233 003a 00C0      		rjmp .L12
 234 003c 00C0      		rjmp .L12
 235 003e 00C0      		rjmp .L12
 236 0040 00C0      		rjmp .L18
 237 0042 00C0      		rjmp .L12
 238 0044 00C0      		rjmp .L12
 239 0046 00C0      		rjmp .L12
 240 0048 00C0      		rjmp .L12
 241 004a 00C0      		rjmp .L12
 242 004c 00C0      		rjmp .L12
 243 004e 00C0      		rjmp .L12
 244 0050 00C0      		rjmp .L19
 245 0052 00C0      		rjmp .L12
 246 0054 00C0      		rjmp .L12
 247 0056 00C0      		rjmp .L12
 248 0058 00C0      		rjmp .L12
 249 005a 00C0      		rjmp .L12
 250 005c 00C0      		rjmp .L12
 251 005e 00C0      		rjmp .L12
 252 0060 00C0      		rjmp .L12
 253 0062 00C0      		rjmp .L12
 254 0064 00C0      		rjmp .L12
 255 0066 00C0      		rjmp .L12
 256 0068 00C0      		rjmp .L12
 257 006a 00C0      		rjmp .L12
 258 006c 00C0      		rjmp .L12
 259 006e 00C0      		rjmp .L12
 260 0070 00C0      		rjmp .L20
 261 0072 00C0      		rjmp .L12
 262 0074 00C0      		rjmp .L12
 263 0076 00C0      		rjmp .L12
 264 0078 00C0      		rjmp .L12
 265 007a 00C0      		rjmp .L12
GAS LISTING C:\Users\Joe\AppData\Local\Temp\ccTlOKC3.s 			page 9


 266 007c 00C0      		rjmp .L12
 267 007e 00C0      		rjmp .L12
 268 0080 00C0      		rjmp .L17
 269 0082 00C0      		rjmp .L12
 270 0084 00C0      		rjmp .L12
 271 0086 00C0      		rjmp .L12
 272 0088 00C0      		rjmp .L12
 273 008a 00C0      		rjmp .L12
 274 008c 00C0      		rjmp .L12
 275 008e 00C0      		rjmp .L12
 276 0090 00C0      		rjmp .L21
 277 0092 00C0      		rjmp .L12
 278 0094 00C0      		rjmp .L12
 279 0096 00C0      		rjmp .L12
 280 0098 00C0      		rjmp .L12
 281 009a 00C0      		rjmp .L12
 282 009c 00C0      		rjmp .L12
 283 009e 00C0      		rjmp .L12
 284 00a0 00C0      		rjmp .L22
 285               		.text
 286               	.L14:
 192:I2CInterface.c ****     {
 193:I2CInterface.c ****         case TW_START:									/* Start condition */
 194:I2CInterface.c ****         case TW_REP_START:								/* Repeated start condition */
 195:I2CInterface.c ****             if(retry_cnt > MAX_TWI_RETRIES) 
 287               		.loc 1 195 0
 288 00ae 8091 0000 		lds r24,retry_cnt
 289               	.LVL10:
 290 00b2 8330      		cpi r24,lo8(3)
 291 00b4 00F0      		brlo .L23
 196:I2CInterface.c ****             {
 197:I2CInterface.c ****                 /* generate stop condition if we've reached our retry limit */
 198:I2CInterface.c ****                 TWCR |= (1<<TWINT)|(1<<TWSTO);					
 292               		.loc 1 198 0
 293 00b6 86B7      		in r24,0x36
 294 00b8 8069      		ori r24,lo8(-112)
 295 00ba 86BF      		out 0x36,r24
 199:I2CInterface.c ****                 status &= ~(1<<BUSY);								
 296               		.loc 1 199 0
 297 00bc 8091 0000 		lds r24,status
 298 00c0 8F77      		andi r24,lo8(127)
 299 00c2 8093 0000 		sts status,r24
 200:I2CInterface.c ****                 return;												
 300               		.loc 1 200 0
 301 00c6 00C0      		rjmp .L12
 302               	.L23:
 201:I2CInterface.c ****             }
 202:I2CInterface.c ****             /* indicate read or write */
 203:I2CInterface.c ****             TWDR = (twi_address<<1) + twi_ddr;	
 303               		.loc 1 203 0
 304 00c8 8091 0000 		lds r24,twi_address
 305 00cc 9091 0000 		lds r25,twi_ddr
 306 00d0 880F      		lsl r24
 307 00d2 890F      		add r24,r25
 308 00d4 83B9      		out 0x3,r24
 204:I2CInterface.c ****             /* TWSTA must be cleared...also clears TWINT */
 205:I2CInterface.c ****             TWCR &= ~(1<<TWSTA);
GAS LISTING C:\Users\Joe\AppData\Local\Temp\ccTlOKC3.s 			page 10


 309               		.loc 1 205 0
 310 00d6 86B7      		in r24,0x36
 311 00d8 8F7D      		andi r24,lo8(-33)
 312 00da 86BF      		out 0x36,r24
 206:I2CInterface.c ****             break;
 313               		.loc 1 206 0
 314 00dc 00C0      		rjmp .L12
 315               	.LVL11:
 316               	.L16:
 207:I2CInterface.c **** 
 208:I2CInterface.c ****         case TW_MT_SLA_ACK:							/* Slave acknowledged address, */
 209:I2CInterface.c ****             retry_cnt = 0;					
 317               		.loc 1 209 0
 318 00de 1092 0000 		sts retry_cnt,__zero_reg__
 210:I2CInterface.c ****             /* tx the data, and increment the data pointer */
 211:I2CInterface.c ****             TWDR = *twi_data;										
 319               		.loc 1 211 0
 320 00e2 E091 0000 		lds r30,twi_data
 321 00e6 F091 0000 		lds r31,twi_data+1
 322 00ea 8081      		ld r24,Z
 323               	.LVL12:
 324 00ec 83B9      		out 0x3,r24
 212:I2CInterface.c ****             twi_data++;			
 325               		.loc 1 212 0
 326 00ee 8091 0000 		lds r24,twi_data
 327 00f2 9091 0000 		lds r25,twi_data+1
 328 00f6 0196      		adiw r24,1
 329 00f8 9093 0000 		sts twi_data+1,r25
 330 00fc 8093 0000 		sts twi_data,r24
 213:I2CInterface.c **** 
 214:I2CInterface.c ****             /* clear the int to continue */
 215:I2CInterface.c ****             TWCR |= (1<<TWINT);						
 331               		.loc 1 215 0
 332 0100 86B7      		in r24,0x36
 333 0102 8068      		ori r24,lo8(-128)
 334 0104 86BF      		out 0x36,r24
 216:I2CInterface.c ****             break;
 335               		.loc 1 216 0
 336 0106 00C0      		rjmp .L12
 337               	.LVL13:
 338               	.L17:
 217:I2CInterface.c **** 
 218:I2CInterface.c ****         case TW_MT_SLA_NACK:							/* Slave didn't acknowledge address, */
 219:I2CInterface.c ****         case TW_MR_SLA_NACK:
 220:I2CInterface.c ****             retry_cnt++;		
 339               		.loc 1 220 0
 340 0108 8091 0000 		lds r24,retry_cnt
 341               	.LVL14:
 342 010c 8F5F      		subi r24,lo8(-(1))
 343 010e 8093 0000 		sts retry_cnt,r24
 221:I2CInterface.c **** 
 222:I2CInterface.c ****             /* retry...*/
 223:I2CInterface.c ****             TWCR |= (1<<TWINT)|(1<<TWSTA)|(1<<TWSTO);	
 344               		.loc 1 223 0
 345 0112 86B7      		in r24,0x36
 346 0114 806B      		ori r24,lo8(-80)
 347 0116 86BF      		out 0x36,r24
GAS LISTING C:\Users\Joe\AppData\Local\Temp\ccTlOKC3.s 			page 11


 224:I2CInterface.c ****             break;
 348               		.loc 1 224 0
 349 0118 00C0      		rjmp .L12
 350               	.LVL15:
 351               	.L18:
 225:I2CInterface.c **** 
 226:I2CInterface.c ****         case TW_MT_DATA_ACK:							/* Slave Acknowledged data, */
 227:I2CInterface.c ****             if(--twi_bytes > 0) 
 352               		.loc 1 227 0
 353 011a 8091 0000 		lds r24,twi_bytes
 354               	.LVL16:
 355 011e 8150      		subi r24,lo8(-(-1))
 356 0120 8093 0000 		sts twi_bytes,r24
 357 0124 8823      		tst r24
 358 0126 01F0      		breq .L24
 228:I2CInterface.c ****             {						
 229:I2CInterface.c ****                 /* more data to send, so send it */
 230:I2CInterface.c ****                 TWDR = *twi_data;									
 359               		.loc 1 230 0
 360 0128 E091 0000 		lds r30,twi_data
 361 012c F091 0000 		lds r31,twi_data+1
 362 0130 8081      		ld r24,Z
 363 0132 83B9      		out 0x3,r24
 231:I2CInterface.c ****                 twi_data++;											
 364               		.loc 1 231 0
 365 0134 8091 0000 		lds r24,twi_data
 366 0138 9091 0000 		lds r25,twi_data+1
 367 013c 0196      		adiw r24,1
 368 013e 9093 0000 		sts twi_data+1,r25
 369 0142 8093 0000 		sts twi_data,r24
 232:I2CInterface.c ****                 TWCR |= (1<<TWINT);								
 370               		.loc 1 232 0
 371 0146 86B7      		in r24,0x36
 372 0148 8068      		ori r24,lo8(-128)
 373 014a 86BF      		out 0x36,r24
 374 014c 00C0      		rjmp .L12
 375               	.L24:
 233:I2CInterface.c ****             }
 234:I2CInterface.c ****             else 
 235:I2CInterface.c ****             {
 236:I2CInterface.c ****                 /* generate the stop condition if needed */
 237:I2CInterface.c ****                 TWCR |= (1<<TWSTO)|(1<<TWINT);					
 376               		.loc 1 237 0
 377 014e 86B7      		in r24,0x36
 378 0150 8069      		ori r24,lo8(-112)
 379 0152 86BF      		out 0x36,r24
 238:I2CInterface.c ****                 status &= ~(1<<BUSY);								
 380               		.loc 1 238 0
 381 0154 8091 0000 		lds r24,status
 382 0158 8F77      		andi r24,lo8(127)
 383 015a 8093 0000 		sts status,r24
 384 015e 00C0      		rjmp .L12
 385               	.LVL17:
 386               	.L19:
 239:I2CInterface.c ****             }
 240:I2CInterface.c ****             break;
 241:I2CInterface.c **** 
GAS LISTING C:\Users\Joe\AppData\Local\Temp\ccTlOKC3.s 			page 12


 242:I2CInterface.c ****         case TW_MT_DATA_NACK:							/* Slave didn't acknowledge data */
 243:I2CInterface.c ****             /* send the stop condition */
 244:I2CInterface.c ****             TWCR |= (1<<TWINT)|(1<<TWSTO);						
 387               		.loc 1 244 0
 388 0160 86B7      		in r24,0x36
 389               	.LVL18:
 390 0162 8069      		ori r24,lo8(-112)
 391 0164 86BF      		out 0x36,r24
 245:I2CInterface.c ****             status &= ~(1<<BUSY);									
 392               		.loc 1 245 0
 393 0166 8091 0000 		lds r24,status
 394 016a 8F77      		andi r24,lo8(127)
 395 016c 8093 0000 		sts status,r24
 246:I2CInterface.c ****             break;
 396               		.loc 1 246 0
 397 0170 00C0      		rjmp .L12
 398               	.LVL19:
 399               	.L20:
 247:I2CInterface.c **** 
 248:I2CInterface.c ****         case TW_MR_SLA_ACK:                             /* Slave acknowledged address */
 249:I2CInterface.c ****             if(--twi_bytes > 0) 
 400               		.loc 1 249 0
 401 0172 8091 0000 		lds r24,twi_bytes
 402               	.LVL20:
 403 0176 8150      		subi r24,lo8(-(-1))
 404 0178 8093 0000 		sts twi_bytes,r24
 405 017c 8823      		tst r24
 406 017e 01F0      		breq .L25
 250:I2CInterface.c ****             {
 251:I2CInterface.c ****                 /* if there is more than one byte to read, acknowledge */
 252:I2CInterface.c ****                 TWCR |= (1<<TWEA)|(1<<TWINT);	
 407               		.loc 1 252 0
 408 0180 86B7      		in r24,0x36
 409 0182 806C      		ori r24,lo8(-64)
 410 0184 86BF      		out 0x36,r24
 411 0186 00C0      		rjmp .L12
 412               	.L25:
 253:I2CInterface.c ****             }
 254:I2CInterface.c **** 			else
 255:I2CInterface.c ****             {
 256:I2CInterface.c ****                 /* no acknowledge */
 257:I2CInterface.c ****                 TWCR |= (1<<TWINT);					
 413               		.loc 1 257 0
 414 0188 86B7      		in r24,0x36
 415 018a 8068      		ori r24,lo8(-128)
 416 018c 86BF      		out 0x36,r24
 417 018e 00C0      		rjmp .L12
 418               	.LVL21:
 419               	.L21:
 258:I2CInterface.c ****             }
 259:I2CInterface.c ****             break;
 260:I2CInterface.c **** 
 261:I2CInterface.c ****         case TW_MR_DATA_ACK: 							/* Master acknowledged data */
 262:I2CInterface.c ****         
 263:I2CInterface.c ****             /* grab the received data */
 264:I2CInterface.c ****             *twi_data = TWDR;										
 420               		.loc 1 264 0
GAS LISTING C:\Users\Joe\AppData\Local\Temp\ccTlOKC3.s 			page 13


 421 0190 83B1      		in r24,0x3
 422               	.LVL22:
 423 0192 E091 0000 		lds r30,twi_data
 424 0196 F091 0000 		lds r31,twi_data+1
 425 019a 8193      		st Z+,r24
 265:I2CInterface.c ****             twi_data++;											
 426               		.loc 1 265 0
 427 019c F093 0000 		sts twi_data+1,r31
 428 01a0 E093 0000 		sts twi_data,r30
 266:I2CInterface.c ****             if(--twi_bytes > 0) 
 429               		.loc 1 266 0
 430 01a4 8091 0000 		lds r24,twi_bytes
 431 01a8 8150      		subi r24,lo8(-(-1))
 432 01aa 8093 0000 		sts twi_bytes,r24
 433 01ae 8823      		tst r24
 434 01b0 01F0      		breq .L26
 267:I2CInterface.c ****             {
 268:I2CInterface.c ****                 /* get the next data byte and ack */
 269:I2CInterface.c ****                 TWCR |= (1<<TWEA)|(1<<TWINT);	
 435               		.loc 1 269 0
 436 01b2 86B7      		in r24,0x36
 437 01b4 806C      		ori r24,lo8(-64)
 438 01b6 86BF      		out 0x36,r24
 439 01b8 00C0      		rjmp .L12
 440               	.L26:
 270:I2CInterface.c ****             }
 271:I2CInterface.c ****             else
 272:I2CInterface.c ****             {
 273:I2CInterface.c ****                 /* clear out the enable acknowledge bit */
 274:I2CInterface.c ****                 TWCR &= ~(1<<TWEA);							
 441               		.loc 1 274 0
 442 01ba 86B7      		in r24,0x36
 443 01bc 8F7B      		andi r24,lo8(-65)
 444 01be 86BF      		out 0x36,r24
 445 01c0 00C0      		rjmp .L12
 446               	.LVL23:
 447               	.L22:
 275:I2CInterface.c ****             }
 276:I2CInterface.c ****             break;
 277:I2CInterface.c **** 
 278:I2CInterface.c ****         case TW_MR_DATA_NACK:						/* Master didn't acknowledge data -> end of read process */
 279:I2CInterface.c ****             /* read data, and generate the stop condition */
 280:I2CInterface.c ****             *twi_data = TWDR;										
 448               		.loc 1 280 0
 449 01c2 E091 0000 		lds r30,twi_data
 450 01c6 F091 0000 		lds r31,twi_data+1
 451 01ca 83B1      		in r24,0x3
 452               	.LVL24:
 453 01cc 8083      		st Z,r24
 281:I2CInterface.c ****             TWCR |= (1<<TWSTO)|(1<<TWINT); 						
 454               		.loc 1 281 0
 455 01ce 86B7      		in r24,0x36
 456 01d0 8069      		ori r24,lo8(-112)
 457 01d2 86BF      		out 0x36,r24
 282:I2CInterface.c ****             status &= ~(1<<BUSY);											
 458               		.loc 1 282 0
 459 01d4 8091 0000 		lds r24,status
GAS LISTING C:\Users\Joe\AppData\Local\Temp\ccTlOKC3.s 			page 14


 460 01d8 8F77      		andi r24,lo8(127)
 461 01da 8093 0000 		sts status,r24
 462               	.L12:
 463               	/* epilogue start */
 283:I2CInterface.c ****             break;
 284:I2CInterface.c **** 	}
 285:I2CInterface.c **** }
 464               		.loc 1 285 0
 465 01de FF91      		pop r31
 466 01e0 EF91      		pop r30
 467 01e2 BF91      		pop r27
 468 01e4 AF91      		pop r26
 469 01e6 9F91      		pop r25
 470 01e8 8F91      		pop r24
 471 01ea 0F90      		pop r0
 472 01ec 0FBE      		out __SREG__,r0
 473 01ee 0F90      		pop r0
 474 01f0 1F90      		pop r1
 475 01f2 1895      		reti
 476               		.cfi_endproc
 477               	.LFE4:
 478               		.size	__vector_17, .-__vector_17
 479               		.local	retry_cnt
 480               		.comm	retry_cnt,1,1
 481               		.local	status
 482               		.comm	status,1,1
 483               		.local	twi_bytes
 484               		.comm	twi_bytes,1,1
 485               		.local	twi_ddr
 486               		.comm	twi_ddr,1,1
 487               		.local	twi_data
 488               		.comm	twi_data,2,1
 489               		.local	twi_address
 490               		.comm	twi_address,1,1
 491               	.Letext0:
 492               		.file 2 "c:\\program files (x86)\\atmel\\studio\\7.0\\toolchain\\avr8\\avr8-gnu-toolchain\\avr\\in
 493               		.file 3 "CommonDefs.h"