GAS LISTING C:\Users\Joe\AppData\Local\Temp\ccnucDcp.s 			page 1


   1               		.file	"UartInterface.c"
   2               	__SP_H__ = 0x3e
   3               	__SP_L__ = 0x3d
   4               	__SREG__ = 0x3f
   5               	__tmp_reg__ = 0
   6               	__zero_reg__ = 1
   7               		.text
   8               	.Ltext0:
   9               		.cfi_sections	.debug_frame
  10               	.global	UartInt_init
  11               		.type	UartInt_init, @function
  12               	UartInt_init:
  13               	.LFB0:
  14               		.file 1 "UartInterface.c"
   1:UartInterface.c **** /*
   2:UartInterface.c ****     Copyright (C) 2004    John Orlando
   3:UartInterface.c ****     
   4:UartInterface.c ****    AVRcam: a small real-time image processing engine.
   5:UartInterface.c **** 
   6:UartInterface.c ****     This program is free software; you can redistribute it and/or
   7:UartInterface.c ****     modify it under the terms of the GNU General Public
   8:UartInterface.c ****     License as published by the Free Software Foundation; either
   9:UartInterface.c ****     version 2 of the License, or (at your option) any later version.
  10:UartInterface.c **** 
  11:UartInterface.c ****     This program is distributed in the hope that it will be useful,
  12:UartInterface.c ****     but WITHOUT ANY WARRANTY; without even the implied warranty of
  13:UartInterface.c ****     MERCHANTABILITY or FITNESS FOR A PARTICULAR PURPOSE.  See the GNU
  14:UartInterface.c ****     General Public License for more details.
  15:UartInterface.c **** 
  16:UartInterface.c ****     You should have received a copy of the GNU General Public
  17:UartInterface.c ****     License along with this program; if not, write to the Free Software
  18:UartInterface.c ****     Foundation, Inc., 59 Temple Place, Suite 330, Boston, MA  02111-1307  USA
  19:UartInterface.c **** 
  20:UartInterface.c ****    For more information on the AVRcam, please contact:
  21:UartInterface.c **** 
  22:UartInterface.c ****    john@jrobot.net
  23:UartInterface.c **** 
  24:UartInterface.c ****    or go to www.jrobot.net for more details regarding the system.
  25:UartInterface.c **** */
  26:UartInterface.c **** /***********************************************************
  27:UartInterface.c **** 	Module Name: UartInterface.c
  28:UartInterface.c **** 	Module Date: 04/10/2004
  29:UartInterface.c **** 	Module Auth: John Orlando
  30:UartInterface.c **** 	
  31:UartInterface.c **** 	Description: This module is responsible for providing an
  32:UartInterface.c **** 	interface to the UART hardware available on the mega8.
  33:UartInterface.c **** 	This interface is an interrupt-driven interface.
  34:UartInterface.c ****     
  35:UartInterface.c ****     Revision History:
  36:UartInterface.c ****     Date        Rel Ver.    Notes
  37:UartInterface.c ****     4/10/2004      0.1     Module created
  38:UartInterface.c ****     6/30/2004      1.0     Initial release for Circuit Cellar
  39:UartInterface.c ****                            contest.
  40:UartInterface.c ****     11/15/2004     1.2     Updated UART baud rate regs so that
  41:UartInterface.c ****                            it runs at 115.2 kbps when the input
  42:UartInterface.c ****                            crystal is at 17.7 MHz (which is the
  43:UartInterface.c ****                            speed of the OV6620's crystal).
GAS LISTING C:\Users\Joe\AppData\Local\Temp\ccnucDcp.s 			page 2


  44:UartInterface.c ****     1/16/2005      1.4     Moved the serial received ISR to
  45:UartInterface.c ****                            this file, instead of having it
  46:UartInterface.c ****                            in its own UartInterfaceAsm.S file
  47:UartInterface.c ****                            written in assembly.
  48:UartInterface.c **** ***********************************************************/
  49:UartInterface.c **** 
  50:UartInterface.c **** /*	Includes */
  51:UartInterface.c **** #include <avr/io.h>
  52:UartInterface.c **** #include <avr/interrupt.h>
  53:UartInterface.c **** #include <avr/signal.h>
  54:UartInterface.c **** #include "CommonDefs.h"
  55:UartInterface.c **** #include "UartInterface.h" 
  56:UartInterface.c **** #include "UIMgr.h"
  57:UartInterface.c **** #include "Executive.h"
  58:UartInterface.c **** 
  59:UartInterface.c **** /*  Local Variables */
  60:UartInterface.c **** 
  61:UartInterface.c **** /* 	Local Structures and Typedefs */
  62:UartInterface.c **** 
  63:UartInterface.c **** /*  Extern Variables */
  64:UartInterface.c **** 
  65:UartInterface.c **** /*  Definitions */
  66:UartInterface.c **** 
  67:UartInterface.c **** /***********************************************************
  68:UartInterface.c **** 	Function Name: UartInt_init
  69:UartInterface.c **** 	Function Description: This function is responsible for
  70:UartInterface.c **** 	initializing the UART interface on the mega8.  This 
  71:UartInterface.c **** 	interface is set to communicate at 115.2 Kbps, with an
  72:UartInterface.c **** 	8N1 protocol.
  73:UartInterface.c **** 	Inputs:  none
  74:UartInterface.c **** 	Outputs: none
  75:UartInterface.c **** ***********************************************************/	
  76:UartInterface.c **** void UartInt_init(void)
  77:UartInterface.c **** {	
  15               		.loc 1 77 0
  16               		.cfi_startproc
  17               	/* prologue: function */
  18               	/* frame size = 0 */
  19               	/* stack size = 0 */
  20               	.L__stack_usage = 0
  78:UartInterface.c **** 	/* set up the baud rate registers so the UART will operate
  79:UartInterface.c **** 	at 115.2 Kbps */
  80:UartInterface.c **** 	UBRRH = 0x00;
  21               		.loc 1 80 0
  22 0000 10BC      		out 0x20,__zero_reg__
  81:UartInterface.c **** 
  82:UartInterface.c **** #ifdef NO_CRYSTAL    
  83:UartInterface.c ****     UBRRL = 18;  /* 18 for double clocking at 115.2 kbps */
  23               		.loc 1 83 0
  24 0002 82E1      		ldi r24,lo8(18)
  25 0004 89B9      		out 0x9,r24
  84:UartInterface.c **** #else    
  85:UartInterface.c **** 	UBRRL = 0x08;  /* for 16 MHz crystal at 115.2 kbps */
  86:UartInterface.c **** #endif    
  87:UartInterface.c **** 	
  88:UartInterface.c **** 	/* enable the tx and rx capabilities of the UART...as well 
  89:UartInterface.c **** 		as the receive complete interrupt */
GAS LISTING C:\Users\Joe\AppData\Local\Temp\ccnucDcp.s 			page 3


  90:UartInterface.c **** 	UCSRB = (1<<RXCIE)|(1<<RXEN)|(1<<TXEN);	
  26               		.loc 1 90 0
  27 0006 88E9      		ldi r24,lo8(-104)
  28 0008 8AB9      		out 0xa,r24
  91:UartInterface.c **** 	
  92:UartInterface.c **** 	/* set up the control registers so the UART works at 8N1 */
  93:UartInterface.c **** 	UCSRC = (1<<URSEL)|(1<<UCSZ1)|(1<<UCSZ0);
  29               		.loc 1 93 0
  30 000a 86E8      		ldi r24,lo8(-122)
  31 000c 80BD      		out 0x20,r24
  94:UartInterface.c ****     
  95:UartInterface.c **** #ifdef NO_CRYSTAL     
  96:UartInterface.c ****     /* set the baud rate to use the double-speed */
  97:UartInterface.c ****     UCSRA = (1<<U2X);
  32               		.loc 1 97 0
  33 000e 82E0      		ldi r24,lo8(2)
  34 0010 8BB9      		out 0xb,r24
  35 0012 0895      		ret
  36               		.cfi_endproc
  37               	.LFE0:
  38               		.size	UartInt_init, .-UartInt_init
  39               	.global	UartInt_txByte
  40               		.type	UartInt_txByte, @function
  41               	UartInt_txByte:
  42               	.LFB1:
  98:UartInterface.c **** #endif    
  99:UartInterface.c **** 	
 100:UartInterface.c **** }
 101:UartInterface.c **** 
 102:UartInterface.c **** /***********************************************************
 103:UartInterface.c **** 	Function Name: UartInt_txByte
 104:UartInterface.c **** 	Function Description: This function is responsible for
 105:UartInterface.c **** 	transmitting a single byte on the uart.  
 106:UartInterface.c **** 	Inputs:  txByte - the byte to send
 107:UartInterface.c **** 	Outputs: none
 108:UartInterface.c **** 	NOTES: When the TX UDRE (data register empty) is set, there
 109:UartInterface.c **** 	is puposefully no interrupt...thus, to send a string of
 110:UartInterface.c **** 	data out, the calling routine needs to hold up the entire
 111:UartInterface.c **** 	application while this takes place (or just send one
 112:UartInterface.c **** 	byte at a time at strtegically timed intervals, like
 113:UartInterface.c **** 	the stats data is sent out :-)
 114:UartInterface.c **** ***********************************************************/
 115:UartInterface.c **** void UartInt_txByte(unsigned char txByte)
 116:UartInterface.c **** {
  43               		.loc 1 116 0
  44               		.cfi_startproc
  45               	/* prologue: function */
  46               	/* frame size = 0 */
  47               	/* stack size = 0 */
  48               	.L__stack_usage = 0
  49               	.LVL0:
  50               	.L3:
 117:UartInterface.c **** 	/* Wait for empty transmit buffer */
 118:UartInterface.c **** 	while ( !( UCSRA & (1<<UDRE)) );
  51               		.loc 1 118 0 discriminator 1
  52 0014 5D9B      		sbis 0xb,5
  53 0016 00C0      		rjmp .L3
GAS LISTING C:\Users\Joe\AppData\Local\Temp\ccnucDcp.s 			page 4


 119:UartInterface.c **** 	/* Put data into buffer, sends the data */
 120:UartInterface.c **** 	UDR = txByte;
  54               		.loc 1 120 0
  55 0018 8CB9      		out 0xc,r24
  56 001a 0895      		ret
  57               		.cfi_endproc
  58               	.LFE1:
  59               		.size	UartInt_txByte, .-UartInt_txByte
  60               	.global	__vector_11
  61               		.type	__vector_11, @function
  62               	__vector_11:
  63               	.LFB2:
 121:UartInterface.c **** }
 122:UartInterface.c **** 
 123:UartInterface.c **** /***********************************************************
 124:UartInterface.c **** 	Function Name: SIG_UART_RECV ISR
 125:UartInterface.c **** 	Function Description: This function is responsible for
 126:UartInterface.c **** 	handling the interrupt caused when a data byte is 
 127:UartInterface.c ****     received by the UART.
 128:UartInterface.c **** 	Inputs:  none
 129:UartInterface.c **** 	Outputs: none
 130:UartInterface.c **** 	NOTES: This function was originally written in assembly,
 131:UartInterface.c ****     but moved over to C when the setting of the "T" bit at
 132:UartInterface.c ****     the end of the routine was no longer necessary (this
 133:UartInterface.c ****     theoretically allowed the AVRcam to respond to serial
 134:UartInterface.c ****     bytes in the middle of tracking or dumping a frame.
 135:UartInterface.c ****     But it wasn't really needed, and understanding the C
 136:UartInterface.c ****     is easier  :-)
 137:UartInterface.c **** ***********************************************************/
 138:UartInterface.c **** SIGNAL(USART_RXC_vect)
 139:UartInterface.c **** {
  64               		.loc 1 139 0
  65               		.cfi_startproc
  66 001c 1F92      		push r1
  67               	.LCFI0:
  68               		.cfi_def_cfa_offset 3
  69               		.cfi_offset 1, -2
  70 001e 0F92      		push r0
  71               	.LCFI1:
  72               		.cfi_def_cfa_offset 4
  73               		.cfi_offset 0, -3
  74 0020 0FB6      		in r0,__SREG__
  75 0022 0F92      		push r0
  76 0024 1124      		clr __zero_reg__
  77 0026 8F93      		push r24
  78               	.LCFI2:
  79               		.cfi_def_cfa_offset 5
  80               		.cfi_offset 24, -4
  81 0028 9F93      		push r25
  82               	.LCFI3:
  83               		.cfi_def_cfa_offset 6
  84               		.cfi_offset 25, -5
  85 002a EF93      		push r30
  86               	.LCFI4:
  87               		.cfi_def_cfa_offset 7
  88               		.cfi_offset 30, -6
  89 002c FF93      		push r31
GAS LISTING C:\Users\Joe\AppData\Local\Temp\ccnucDcp.s 			page 5


  90               	.LCFI5:
  91               		.cfi_def_cfa_offset 8
  92               		.cfi_offset 31, -7
  93               	/* prologue: Signal */
  94               	/* frame size = 0 */
  95               	/* stack size = 7 */
  96               	.L__stack_usage = 7
 140:UartInterface.c ****     unsigned char tmpHead;
 141:UartInterface.c ****     /* read the data byte, put it in the serial queue, and
 142:UartInterface.c ****     post the event */
 143:UartInterface.c ****  
 144:UartInterface.c ****     UIMgr_rxFifo[UIMgr_rxFifoHead] = UDR;
  97               		.loc 1 144 0
  98 002e 8091 0000 		lds r24,UIMgr_rxFifoHead
  99 0032 9CB1      		in r25,0xc
 100 0034 E82F      		mov r30,r24
 101 0036 F0E0      		ldi r31,0
 102 0038 E050      		subi r30,lo8(-(UIMgr_rxFifo))
 103 003a F040      		sbci r31,hi8(-(UIMgr_rxFifo))
 104 003c 9083      		st Z,r25
 105               	.LVL1:
 145:UartInterface.c **** 
 146:UartInterface.c ****     /* now move the head up */
 147:UartInterface.c ****     tmpHead = (UIMgr_rxFifoHead + 1) & (UI_MGR_RX_FIFO_MASK);
 148:UartInterface.c ****     UIMgr_rxFifoHead = tmpHead;
 106               		.loc 1 148 0
 107 003e 8F5F      		subi r24,lo8(-(1))
 108               	.LVL2:
 109 0040 8F71      		andi r24,lo8(31)
 110               	.LVL3:
 111 0042 8093 0000 		sts UIMgr_rxFifoHead,r24
 149:UartInterface.c ****     
 150:UartInterface.c ****     /* write the serial received event to the event fifo */
 151:UartInterface.c ****     Exec_eventFifo[Exec_eventFifoHead] = EV_SERIAL_DATA_RECEIVED;
 112               		.loc 1 151 0
 113 0046 8091 0000 		lds r24,Exec_eventFifoHead
 114               	.LVL4:
 115 004a E82F      		mov r30,r24
 116 004c F0E0      		ldi r31,0
 117 004e E050      		subi r30,lo8(-(Exec_eventFifo))
 118 0050 F040      		sbci r31,hi8(-(Exec_eventFifo))
 119 0052 91E0      		ldi r25,lo8(1)
 120 0054 9083      		st Z,r25
 121               	.LVL5:
 152:UartInterface.c **** 
 153:UartInterface.c ****     /* now move the head up */
 154:UartInterface.c ****     tmpHead = (Exec_eventFifoHead + 1) & (EXEC_EVENT_FIFO_MASK);
 155:UartInterface.c ****     Exec_eventFifoHead = tmpHead;
 122               		.loc 1 155 0
 123 0056 8F5F      		subi r24,lo8(-(1))
 124               	.LVL6:
 125 0058 8770      		andi r24,lo8(7)
 126               	.LVL7:
 127 005a 8093 0000 		sts Exec_eventFifoHead,r24
 128               	/* epilogue start */
 156:UartInterface.c **** }
 129               		.loc 1 156 0
GAS LISTING C:\Users\Joe\AppData\Local\Temp\ccnucDcp.s 			page 6


 130 005e FF91      		pop r31
 131 0060 EF91      		pop r30
 132 0062 9F91      		pop r25
 133 0064 8F91      		pop r24
 134               	.LVL8:
 135 0066 0F90      		pop r0
 136 0068 0FBE      		out __SREG__,r0
 137               	.LVL9:
 138 006a 0F90      		pop r0
 139 006c 1F90      		pop r1
 140 006e 1895      		reti
 141               		.cfi_endproc
 142               	.LFE2:
 143               		.size	__vector_11, .-__vector_11
 144               	.Letext0:
 145               		.file 2 "UIMgr.h"
 146               		.file 3 "Executive.h"
 147               		.file 4 "c:\\program files (x86)\\atmel\\studio\\7.0\\toolchain\\avr8\\avr8-gnu-toolchain\\avr\\in