GAS LISTING C:\Users\Joe\AppData\Local\Temp\ccWyxef5.s 			page 1


   1               		.file	"Utility.c"
   2               	__SP_H__ = 0x3e
   3               	__SP_L__ = 0x3d
   4               	__SREG__ = 0x3f
   5               	__tmp_reg__ = 0
   6               	__zero_reg__ = 1
   7               		.text
   8               	.Ltext0:
   9               		.cfi_sections	.debug_frame
  10               	.global	Utility_delay
  11               		.type	Utility_delay, @function
  12               	Utility_delay:
  13               	.LFB0:
  14               		.file 1 "Utility.c"
   1:Utility.c     **** /*
   2:Utility.c     ****     Copyright (C) 2004    John Orlando
   3:Utility.c     ****     
   4:Utility.c     ****    AVRcam: a small real-time image processing engine.
   5:Utility.c     **** 
   6:Utility.c     ****     This program is free software; you can redistribute it and/or
   7:Utility.c     ****     modify it under the terms of the GNU General Public
   8:Utility.c     ****     License as published by the Free Software Foundation; either
   9:Utility.c     ****     version 2 of the License, or (at your option) any later version.
  10:Utility.c     **** 
  11:Utility.c     ****     This program is distributed in the hope that it will be useful,
  12:Utility.c     ****     but WITHOUT ANY WARRANTY; without even the implied warranty of
  13:Utility.c     ****     MERCHANTABILITY or FITNESS FOR A PARTICULAR PURPOSE.  See the GNU
  14:Utility.c     ****     General Public License for more details.
  15:Utility.c     **** 
  16:Utility.c     ****     You should have received a copy of the GNU General Public
  17:Utility.c     ****     License along with this program; if not, write to the Free Software
  18:Utility.c     ****     Foundation, Inc., 59 Temple Place, Suite 330, Boston, MA  02111-1307  USA
  19:Utility.c     **** 
  20:Utility.c     ****    For more information on the AVRcam, please contact:
  21:Utility.c     **** 
  22:Utility.c     ****    john@jrobot.net
  23:Utility.c     **** 
  24:Utility.c     ****    or go to www.jrobot.net for more details regarding the system.
  25:Utility.c     **** */
  26:Utility.c     **** /***********************************************************
  27:Utility.c     **** 	Module Name: Utility.c
  28:Utility.c     **** 	Module Date: 04/13/2004
  29:Utility.c     **** 	Module Auth: John Orlando
  30:Utility.c     **** 	
  31:Utility.c     **** 	Description: This module provides a basic set of
  32:Utility.c     **** 	general purpose utilities that can be used by any
  33:Utility.c     **** 	module needing them.
  34:Utility.c     ****     
  35:Utility.c     ****     Revision History:
  36:Utility.c     ****     Date        Rel Ver.    Notes
  37:Utility.c     ****     4/10/2004      0.1     Module created
  38:Utility.c     ****     6/30/2004      1.0     Initial release for Circuit Cellar
  39:Utility.c     ****                            contest.
  40:Utility.c     **** ***********************************************************/
  41:Utility.c     **** 
  42:Utility.c     **** /*	Includes */
  43:Utility.c     **** #include "CommonDefs.h"
GAS LISTING C:\Users\Joe\AppData\Local\Temp\ccWyxef5.s 			page 2


  44:Utility.c     **** 
  45:Utility.c     **** /*  Local Variables */
  46:Utility.c     **** 
  47:Utility.c     **** /* 	Local Structures and Typedefs */
  48:Utility.c     **** 
  49:Utility.c     **** /*  Extern Variables */
  50:Utility.c     **** 
  51:Utility.c     **** /*  Definitions */
  52:Utility.c     **** 
  53:Utility.c     **** /***********************************************************
  54:Utility.c     **** 	Function Name: Utility_delay
  55:Utility.c     **** 	Function Description: This function provides a busy-wait
  56:Utility.c     **** 	delay for a specified number of milliseconds.
  57:Utility.c     **** 	Inputs:  numMs - the number of milliseconds to delay
  58:Utility.c     **** 	Outputs: none
  59:Utility.c     **** 	NOTES: The delay_loop_1 and delay_loop_2 functions found
  60:Utility.c     **** 	in avr/delay.h provide accurate 3 and 4 cycle delay loops
  61:Utility.c     **** 	if needed...this isn't really a millisecond, so DON'T
  62:Utility.c     ****     depend on it for exact timing...
  63:Utility.c     **** ***********************************************************/	
  64:Utility.c     **** void Utility_delay(unsigned short numMs)
  65:Utility.c     **** {
  15               		.loc 1 65 0
  16               		.cfi_startproc
  17               	.LVL0:
  18 0000 CF93      		push r28
  19               	.LCFI0:
  20               		.cfi_def_cfa_offset 3
  21               		.cfi_offset 28, -2
  22 0002 DF93      		push r29
  23               	.LCFI1:
  24               		.cfi_def_cfa_offset 4
  25               		.cfi_offset 29, -3
  26 0004 00D0      		rcall .
  27 0006 00D0      		rcall .
  28               	.LCFI2:
  29               		.cfi_def_cfa_offset 8
  30 0008 CDB7      		in r28,__SP_L__
  31 000a DEB7      		in r29,__SP_H__
  32               	.LCFI3:
  33               		.cfi_def_cfa_register 28
  34               	/* prologue: function */
  35               	/* frame size = 4 */
  36               	/* stack size = 6 */
  37               	.L__stack_usage = 6
  66:Utility.c     **** 	volatile unsigned short i=0,j=0;
  38               		.loc 1 66 0
  39 000c 1A82      		std Y+2,__zero_reg__
  40 000e 1982      		std Y+1,__zero_reg__
  41 0010 1C82      		std Y+4,__zero_reg__
  42 0012 1B82      		std Y+3,__zero_reg__
  67:Utility.c     **** #ifndef SIMULATION
  68:Utility.c     **** 	for (i=0; i<numMs; i++)
  43               		.loc 1 68 0
  44 0014 1A82      		std Y+2,__zero_reg__
  45 0016 1982      		std Y+1,__zero_reg__
  46 0018 2981      		ldd r18,Y+1
GAS LISTING C:\Users\Joe\AppData\Local\Temp\ccWyxef5.s 			page 3


  47 001a 3A81      		ldd r19,Y+2
  48 001c 2817      		cp r18,r24
  49 001e 3907      		cpc r19,r25
  50 0020 00F4      		brsh .L1
  51               	.L6:
  69:Utility.c     **** 	{
  70:Utility.c     **** 		for (j=0; j<1000; j++)
  52               		.loc 1 70 0
  53 0022 1C82      		std Y+4,__zero_reg__
  54 0024 1B82      		std Y+3,__zero_reg__
  55 0026 2B81      		ldd r18,Y+3
  56 0028 3C81      		ldd r19,Y+4
  57 002a 283E      		cpi r18,-24
  58 002c 3340      		sbci r19,3
  59 002e 00F4      		brsh .L3
  60               	.L7:
  71:Utility.c     **** 		{
  72:Utility.c     **** 			asm volatile("nop"::);
  61               		.loc 1 72 0 discriminator 3
  62               	/* #APP */
  63               	 ;  72 "Utility.c" 1
  64 0030 0000      		nop
  65               	 ;  0 "" 2
  70:Utility.c     **** 		{
  66               		.loc 1 70 0 discriminator 3
  67               	/* #NOAPP */
  68 0032 2B81      		ldd r18,Y+3
  69 0034 3C81      		ldd r19,Y+4
  70 0036 2F5F      		subi r18,-1
  71 0038 3F4F      		sbci r19,-1
  72 003a 3C83      		std Y+4,r19
  73 003c 2B83      		std Y+3,r18
  74 003e 2B81      		ldd r18,Y+3
  75 0040 3C81      		ldd r19,Y+4
  76 0042 283E      		cpi r18,-24
  77 0044 3340      		sbci r19,3
  78 0046 00F0      		brlo .L7
  79               	.L3:
  68:Utility.c     **** 	{
  80               		.loc 1 68 0 discriminator 2
  81 0048 2981      		ldd r18,Y+1
  82 004a 3A81      		ldd r19,Y+2
  83 004c 2F5F      		subi r18,-1
  84 004e 3F4F      		sbci r19,-1
  85 0050 3A83      		std Y+2,r19
  86 0052 2983      		std Y+1,r18
  87 0054 2981      		ldd r18,Y+1
  88 0056 3A81      		ldd r19,Y+2
  89 0058 2817      		cp r18,r24
  90 005a 3907      		cpc r19,r25
  91 005c 00F0      		brlo .L6
  92               	.L1:
  93               	/* epilogue start */
  73:Utility.c     **** 		}
  74:Utility.c     **** 	}
  75:Utility.c     **** #endif	
  76:Utility.c     **** }
GAS LISTING C:\Users\Joe\AppData\Local\Temp\ccWyxef5.s 			page 4


  94               		.loc 1 76 0
  95 005e 0F90      		pop __tmp_reg__
  96 0060 0F90      		pop __tmp_reg__
  97 0062 0F90      		pop __tmp_reg__
  98 0064 0F90      		pop __tmp_reg__
  99 0066 DF91      		pop r29
 100 0068 CF91      		pop r28
 101 006a 0895      		ret
 102               		.cfi_endproc
 103               	.LFE0:
 104               		.size	Utility_delay, .-Utility_delay
 105               	.Letext0: